(lp1
S'/Users/ehowell/Dropbox'
p2
aS'/Users/ehowell/Dropbox/RemnantsofReason'
p3
aS'/Users/ehowell/Data/CruiseData/SE1003/CTD'
p4
aS'/Users/ehowell/Data/CruiseData/SE1003'
p5
aS'/Volumes/FATVERB/Media/mp3/AlbumCovers'
p6
aS'/Users/ehowell/Dropbox/2010_09_LeatherWatch/SatData'
p7
aS'/Users/ehowell/Dropbox/2010_09_LeatherWatch/SatData'
p8
a.