(dp1
Vs[1][0:2]
p2
I685
sVdate = '%4d-%s-%sT%sZ'%(int(s[1][6:8]) + 2000,s[1][3:5],s[1][0:2],s[2][0:5])
p3
I721
sVa[b]
p4
I348
sVinfile = "SE1003_chl_allstations.xls"
p5
I156
sVdir = dirs[0]
p6
I644
sVglob.glob(searcher)
p7
I434
s.