(dp1
Vdirs[0]+'/'+files[0]
p2
I506
sVos.linesep
p3
I743
sVcon.commit()
p4
I737
sVr[0]
p5
I523
sVc.execute('''insert into turtles values(int(r[0]),date,r[3],r[4],r[5],r[6],r[7],r[8],r[9],r[10],r[11],[r12],r[13],gender)''')
p6
I560
s.