(dp1
Voutfile.write('%s; %s; %s; %6.2f; %5.2f; 500; %s; %s; %s; %s; %s; %s\u005cn'%(cruise, station, outtime, longitude, latitude, press, temp0, sal0, oxy0, fluor, V4))
p2
I151
sVprint sheets[0]
p3
I163
sVde):
p4
I700
s.