(dp1
Vfor i in range(1,10)
p2
I249
sVstation.split(".")
p3
I127
sVdata = infile.readlines()
p4
I137
sVprint('%d %d %d %d %6.2f %5.2f %d %d %5.3f %s %7.4f %s %7.4f %5.3f\u005cn'%(stano,rawdate[0],rawdate[1],rawdate[2],lon,lat,bottle,depth,blank,range_b,Rb,range_a,Ra,chla_meas))
p5
I318
s.