(dp1
Vls dirs[0]+files[0]
p2
I503
sVc.execute('''create table stocks
p3
I528
sVc.execute('''insert into turtles values(int(r[0]),date,r[3],r[4],r[5],r[6],r[7],r[8],r[9],r[10],r[11],r[12],r[13],gender)''')
p4
I563
sVdata=csv.reader(open(infile, 'U',delimiter=','))
p5
I761
s.