(dp1
Va.decode('utf-8')
p2
I542
sVls /Users/ehowell/Dropbox/2010_09_LeatherWatch
p3
I488
sVtestline.split(",")[4][-1]
p4
I660
sVls CTD/Processed/
p5
I372
sVstano = str(sheet.cell_value(rowx=3, colx=1))
p6
I233
s.