(dp1
Voutfile.write('%s; %s; %s; %6.2f; %5.2f; 500; %s; %s; %s; %s; %s\u005cn'%(cruise, station, outtime, longitude, latitude, press, temp0, sal0, oxy0, fluor, V4))
p2
I150
sV'%4d-%s-%sT%sZ'%(int(s[1][6:8]) + 2000,s[1][3:5],s[1][0:2],s[2][0:5])
p3
I689
s.