(imatplotlib.font_manager
FontManager
p1
(dp2
S'afm_lookup_cache'
p3
(dp4
sS'ttflist'
p5
(lp6
ccopy_reg
_reconstructor
p7
(cmatplotlib.font_manager
FontEntry
p8
c__builtin__
object
p9
NtRp10
(dp11
S'style'
p12
S'italic'
p13
sS'name'
p14
S'STIXGeneral'
p15
sS'weight'
p16
I700
sS'stretch'
p17
S'normal'
p18
sS'variant'
p19
g18
sS'fname'
p20
S'/opt/local/Library/Frameworks/Python.framework/Versions/2.7/lib/python2.7/site-packages/matplotlib/mpl-data/fonts/ttf/STIXGeneralBolIta.ttf'
p21
sS'size'
p22
S'scalable'
p23
sbag7
(g8
g9
NtRp24
(dp25
g12
g18
sg14
S'Bitstream Vera Sans'
p26
sg16
I700
sg17
g18
sg19
g18
sg20
S'/opt/local/Library/Frameworks/Python.framework/Versions/2.7/lib/python2.7/site-packages/matplotlib/mpl-data/fonts/ttf/VeraBd.ttf'
p27
sg22
g23
sbag7
(g8
g9
NtRp28
(dp29
g12
g18
sg14
S'STIXNonUnicode'
p30
sg16
I700
sg17
g18
sg19
g18
sg20
S'/opt/local/Library/Frameworks/Python.framework/Versions/2.7/lib/python2.7/site-packages/matplotlib/mpl-data/fonts/ttf/STIXNonUniBol.ttf'
p31
sg22
g23
sbag7
(g8
g9
NtRp32
(dp33
g12
g18
sg14
S'STIXGeneral'
p34
sg16
I400
sg17
g18
sg19
g18
sg20
S'/opt/local/Library/Frameworks/Python.framework/Versions/2.7/lib/python2.7/site-packages/matplotlib/mpl-data/fonts/ttf/STIXGeneral.ttf'
p35
sg22
g23
sbag7
(g8
g9
NtRp36
(dp37
g12
g18
sg14
S'cmsy10'
p38
sg16
I400
sg17
g18
sg19
g18
sg20
S'/opt/local/Library/Frameworks/Python.framework/Versions/2.7/lib/python2.7/site-packages/matplotlib/mpl-data/fonts/ttf/cmsy10.ttf'
p39
sg22
g23
sbag7
(g8
g9
NtRp40
(dp41
g12
g18
sg14
S'STIXSizeTwoSym'
p42
sg16
I700
sg17
g18
sg19
g18
sg20
S'/opt/local/Library/Frameworks/Python.framework/Versions/2.7/lib/python2.7/site-packages/matplotlib/mpl-data/fonts/ttf/STIXSizTwoSymBol.ttf'
p43
sg22
g23
sbag7
(g8
g9
NtRp44
(dp45
g12
g18
sg14
S'cmss10'
p46
sg16
I400
sg17
g18
sg19
g18
sg20
S'/opt/local/Library/Frameworks/Python.framework/Versions/2.7/lib/python2.7/site-packages/matplotlib/mpl-data/fonts/ttf/cmss10.ttf'
p47
sg22
g23
sbag7
(g8
g9
NtRp48
(dp49
g12
g18
sg14
S'cmtt10'
p50
sg16
I400
sg17
g18
sg19
g18
sg20
S'/opt/local/Library/Frameworks/Python.framework/Versions/2.7/lib/python2.7/site-packages/matplotlib/mpl-data/fonts/ttf/cmtt10.ttf'
p51
sg22
g23
sbag7
(g8
g9
NtRp52
(dp53
g12
g18
sg14
S'STIXSizeThreeSym'
p54
sg16
I700
sg17
g18
sg19
g18
sg20
S'/opt/local/Library/Frameworks/Python.framework/Versions/2.7/lib/python2.7/site-packages/matplotlib/mpl-data/fonts/ttf/STIXSizThreeSymBol.ttf'
p55
sg22
g23
sbag7
(g8
g9
NtRp56
(dp57
g12
g18
sg14
S'STIXSizeFourSym'
p58
sg16
I400
sg17
g18
sg19
g18
sg20
S'/opt/local/Library/Frameworks/Python.framework/Versions/2.7/lib/python2.7/site-packages/matplotlib/mpl-data/fonts/ttf/STIXSizFourSymReg.ttf'
p59
sg22
g23
sbag7
(g8
g9
NtRp60
(dp61
g12
g13
sg14
S'STIXNonUnicode'
p62
sg16
I700
sg17
g18
sg19
g18
sg20
S'/opt/local/Library/Frameworks/Python.framework/Versions/2.7/lib/python2.7/site-packages/matplotlib/mpl-data/fonts/ttf/STIXNonUniBolIta.ttf'
p63
sg22
g23
sbag7
(g8
g9
NtRp64
(dp65
g12
g18
sg14
S'STIXSizeOneSym'
p66
sg16
I700
sg17
g18
sg19
g18
sg20
S'/opt/local/Library/Frameworks/Python.framework/Versions/2.7/lib/python2.7/site-packages/matplotlib/mpl-data/fonts/ttf/STIXSizOneSymBol.ttf'
p67
sg22
g23
sbag7
(g8
g9
NtRp68
(dp69
g12
g13
sg14
S'STIXGeneral'
p70
sg16
I400
sg17
g18
sg19
g18
sg20
S'/opt/local/Library/Frameworks/Python.framework/Versions/2.7/lib/python2.7/site-packages/matplotlib/mpl-data/fonts/ttf/STIXGeneralItalic.ttf'
p71
sg22
g23
sbag7
(g8
g9
NtRp72
(dp73
g12
S'oblique'
p74
sg14
S'Bitstream Vera Sans'
p75
sg16
I700
sg17
g18
sg19
g18
sg20
S'/opt/local/Library/Frameworks/Python.framework/Versions/2.7/lib/python2.7/site-packages/matplotlib/mpl-data/fonts/ttf/VeraBI.ttf'
p76
sg22
g23
sbag7
(g8
g9
NtRp77
(dp78
g12
g18
sg14
S'cmex10'
p79
sg16
I400
sg17
g18
sg19
g18
sg20
S'/opt/local/Library/Frameworks/Python.framework/Versions/2.7/lib/python2.7/site-packages/matplotlib/mpl-data/fonts/ttf/cmex10.ttf'
p80
sg22
g23
sbag7
(g8
g9
NtRp81
(dp82
g12
g18
sg14
S'STIXSizeFourSym'
p83
sg16
I700
sg17
g18
sg19
g18
sg20
S'/opt/local/Library/Frameworks/Python.framework/Versions/2.7/lib/python2.7/site-packages/matplotlib/mpl-data/fonts/ttf/STIXSizFourSymBol.ttf'
p84
sg22
g23
sbag7
(g8
g9
NtRp85
(dp86
g12
g74
sg14
S'Bitstream Vera Sans Mono'
p87
sg16
I700
sg17
g18
sg19
g18
sg20
S'/opt/local/Library/Frameworks/Python.framework/Versions/2.7/lib/python2.7/site-packages/matplotlib/mpl-data/fonts/ttf/VeraMoBI.ttf'
p88
sg22
g23
sbag7
(g8
g9
NtRp89
(dp90
g12
g18
sg14
S'STIXSizeOneSym'
p91
sg16
I400
sg17
g18
sg19
g18
sg20
S'/opt/local/Library/Frameworks/Python.framework/Versions/2.7/lib/python2.7/site-packages/matplotlib/mpl-data/fonts/ttf/STIXSizOneSymReg.ttf'
p92
sg22
g23
sbag7
(g8
g9
NtRp93
(dp94
g12
g13
sg14
S'STIXNonUnicode'
p95
sg16
I400
sg17
g18
sg19
g18
sg20
S'/opt/local/Library/Frameworks/Python.framework/Versions/2.7/lib/python2.7/site-packages/matplotlib/mpl-data/fonts/ttf/STIXNonUniIta.ttf'
p96
sg22
g23
sbag7
(g8
g9
NtRp97
(dp98
g12
g74
sg14
S'Bitstream Vera Sans Mono'
p99
sg16
I400
sg17
g18
sg19
g18
sg20
S'/opt/local/Library/Frameworks/Python.framework/Versions/2.7/lib/python2.7/site-packages/matplotlib/mpl-data/fonts/ttf/VeraMoIt.ttf'
p100
sg22
g23
sbag7
(g8
g9
NtRp101
(dp102
g12
g18
sg14
S'Bitstream Vera Sans Mono'
p103
sg16
I400
sg17
g18
sg19
g18
sg20
S'/opt/local/Library/Frameworks/Python.framework/Versions/2.7/lib/python2.7/site-packages/matplotlib/mpl-data/fonts/ttf/VeraMono.ttf'
p104
sg22
g23
sbag7
(g8
g9
NtRp105
(dp106
g12
g18
sg14
S'STIXNonUnicode'
p107
sg16
I400
sg17
g18
sg19
g18
sg20
S'/opt/local/Library/Frameworks/Python.framework/Versions/2.7/lib/python2.7/site-packages/matplotlib/mpl-data/fonts/ttf/STIXNonUni.ttf'
p108
sg22
g23
sbag7
(g8
g9
NtRp109
(dp110
g12
g18
sg14
S'Bitstream Vera Sans'
p111
sg16
I400
sg17
g18
sg19
g18
sg20
S'/opt/local/Library/Frameworks/Python.framework/Versions/2.7/lib/python2.7/site-packages/matplotlib/mpl-data/fonts/ttf/Vera.ttf'
p112
sg22
g23
sbag7
(g8
g9
NtRp113
(dp114
g12
g18
sg14
S'STIXSizeTwoSym'
p115
sg16
I400
sg17
g18
sg19
g18
sg20
S'/opt/local/Library/Frameworks/Python.framework/Versions/2.7/lib/python2.7/site-packages/matplotlib/mpl-data/fonts/ttf/STIXSizTwoSymReg.ttf'
p116
sg22
g23
sbag7
(g8
g9
NtRp117
(dp118
g12
g18
sg14
S'Bitstream Vera Serif'
p119
sg16
I400
sg17
g18
sg19
g18
sg20
S'/opt/local/Library/Frameworks/Python.framework/Versions/2.7/lib/python2.7/site-packages/matplotlib/mpl-data/fonts/ttf/VeraSe.ttf'
p120
sg22
g23
sbag7
(g8
g9
NtRp121
(dp122
g12
g18
sg14
S'cmmi10'
p123
sg16
I400
sg17
g18
sg19
g18
sg20
S'/opt/local/Library/Frameworks/Python.framework/Versions/2.7/lib/python2.7/site-packages/matplotlib/mpl-data/fonts/ttf/cmmi10.ttf'
p124
sg22
g23
sbag7
(g8
g9
NtRp125
(dp126
g12
g18
sg14
S'STIXGeneral'
p127
sg16
I700
sg17
g18
sg19
g18
sg20
S'/opt/local/Library/Frameworks/Python.framework/Versions/2.7/lib/python2.7/site-packages/matplotlib/mpl-data/fonts/ttf/STIXGeneralBol.ttf'
p128
sg22
g23
sbag7
(g8
g9
NtRp129
(dp130
g12
g74
sg14
S'Bitstream Vera Sans'
p131
sg16
I400
sg17
g18
sg19
g18
sg20
S'/opt/local/Library/Frameworks/Python.framework/Versions/2.7/lib/python2.7/site-packages/matplotlib/mpl-data/fonts/ttf/VeraIt.ttf'
p132
sg22
g23
sbag7
(g8
g9
NtRp133
(dp134
g12
g18
sg14
S'STIXSizeThreeSym'
p135
sg16
I400
sg17
g18
sg19
g18
sg20
S'/opt/local/Library/Frameworks/Python.framework/Versions/2.7/lib/python2.7/site-packages/matplotlib/mpl-data/fonts/ttf/STIXSizThreeSymReg.ttf'
p136
sg22
g23
sbag7
(g8
g9
NtRp137
(dp138
g12
g18
sg14
S'Bitstream Vera Serif'
p139
sg16
I700
sg17
g18
sg19
g18
sg20
S'/opt/local/Library/Frameworks/Python.framework/Versions/2.7/lib/python2.7/site-packages/matplotlib/mpl-data/fonts/ttf/VeraSeBd.ttf'
p140
sg22
g23
sbag7
(g8
g9
NtRp141
(dp142
g12
g18
sg14
S'cmr10'
p143
sg16
I400
sg17
g18
sg19
g18
sg20
S'/opt/local/Library/Frameworks/Python.framework/Versions/2.7/lib/python2.7/site-packages/matplotlib/mpl-data/fonts/ttf/cmr10.ttf'
p144
sg22
g23
sbag7
(g8
g9
NtRp145
(dp146
g12
g18
sg14
S'cmb10'
p147
sg16
I400
sg17
g18
sg19
g18
sg20
S'/opt/local/Library/Frameworks/Python.framework/Versions/2.7/lib/python2.7/site-packages/matplotlib/mpl-data/fonts/ttf/cmb10.ttf'
p148
sg22
g23
sbag7
(g8
g9
NtRp149
(dp150
g12
g18
sg14
S'Bitstream Vera Sans Mono'
p151
sg16
I700
sg17
g18
sg19
g18
sg20
S'/opt/local/Library/Frameworks/Python.framework/Versions/2.7/lib/python2.7/site-packages/matplotlib/mpl-data/fonts/ttf/VeraMoBd.ttf'
p152
sg22
g23
sbag7
(g8
g9
NtRp153
(dp154
g12
g18
sg14
S'STIXSizeFiveSym'
p155
sg16
I400
sg17
g18
sg19
g18
sg20
S'/opt/local/Library/Frameworks/Python.framework/Versions/2.7/lib/python2.7/site-packages/matplotlib/mpl-data/fonts/ttf/STIXSizFiveSymReg.ttf'
p156
sg22
g23
sbag7
(g8
g9
NtRp157
(dp158
g12
g13
sg14
S'Trebuchet MS'
p159
sg16
I400
sg17
g18
sg19
g18
sg20
S'/Library/Fonts/Trebuchet MS Italic.ttf'
p160
sg22
g23
sbag7
(g8
g9
NtRp161
(dp162
g12
g18
sg14
S'Mshtakan'
p163
sg16
I400
sg17
g18
sg19
g18
sg20
S'/Library/Fonts/MshtakanRegular.ttf'
p164
sg22
g23
sbag7
(g8
g9
NtRp165
(dp166
g12
g18
sg14
S'Osaka'
p167
sg16
I400
sg17
g18
sg19
g18
sg20
S'/Library/Fonts/Osaka.ttf'
p168
sg22
g23
sbag7
(g8
g9
NtRp169
(dp170
g12
g18
sg14
S'Poplar Std'
p171
sg16
I900
sg17
g18
sg19
g18
sg20
S'/Library/Fonts/PoplarStd.otf'
p172
sg22
g23
sbag7
(g8
g9
NtRp173
(dp174
g12
g18
sg14
S'Kozuka Gothic Pr6N'
p175
sg16
I400
sg17
g18
sg19
g18
sg20
S'/Library/Fonts/KozGoPr6N-ExtraLight.otf'
p176
sg22
g23
sbag7
(g8
g9
NtRp177
(dp178
g12
g13
sg14
S'Gill Sans MT'
p179
sg16
I400
sg17
g18
sg19
g18
sg20
S'/Library/Fonts/Microsoft/Gill Sans MT Italic.ttf'
p180
sg22
g23
sbag7
(g8
g9
NtRp181
(dp182
g12
g18
sg14
S'Times New Roman'
p183
sg16
I500
sg17
g18
sg19
g18
sg20
S'/Library/Fonts/Times New Roman.ttf'
p184
sg22
g23
sbag7
(g8
g9
NtRp185
(dp186
g12
g18
sg14
S'Latin Modern Sans'
p187
sg16
I700
sg17
g18
sg19
g18
sg20
S'/Library/Fonts/Latin Modern/lmsans10-bold.otf'
p188
sg22
g23
sbag7
(g8
g9
NtRp189
(dp190
g12
g13
sg14
S'Myriad Pro'
p191
sg16
I400
sg17
S'condensed'
p192
sg19
g18
sg20
S'/Library/Fonts/MyriadPro-CondIt.otf'
p193
sg22
g23
sbag7
(g8
g9
NtRp194
(dp195
g12
g18
sg14
S'Latin Modern Sans'
p196
sg16
I400
sg17
g18
sg19
g18
sg20
S'/Library/Fonts/Latin Modern/lmsans12-regular.otf'
p197
sg22
g23
sbag7
(g8
g9
NtRp198
(dp199
g12
g18
sg14
S'Serto Mardin'
p200
sg16
I700
sg17
g18
sg19
g18
sg20
S'/usr/X11R6/lib/X11/fonts/OTF/SyrCOMMardinBold.otf'
p201
sg22
g23
sbag7
(g8
g9
NtRp202
(dp203
g12
g18
sg14
S'Symbol'
p204
sg16
I400
sg17
g18
sg19
g18
sg20
S'/System/Library/Fonts/Symbol.ttf'
p205
sg22
g23
sbag7
(g8
g9
NtRp206
(dp207
g12
g18
sg14
S'Al Bayan'
p208
sg16
I400
sg17
g18
sg19
g18
sg20
S'/Library/Fonts/AlBayan.ttf'
p209
sg22
g23
sbag7
(g8
g9
NtRp210
(dp211
g12
g18
sg14
S'Candara'
p212
sg16
I700
sg17
g18
sg19
g18
sg20
S'/Library/Fonts/Microsoft/Candara Bold.ttf'
p213
sg22
g23
sbag7
(g8
g9
NtRp214
(dp215
g12
g18
sg14
S'Tw Cen MT'
p216
sg16
I400
sg17
g18
sg19
g18
sg20
S'/Library/Fonts/Microsoft/Tw Cen MT.ttf'
p217
sg22
g23
sbag7
(g8
g9
NtRp218
(dp219
g12
g18
sg14
S'Latin Modern Roman Slanted'
p220
sg16
I400
sg17
g18
sg19
g18
sg20
S'/Library/Fonts/Latin Modern/lmromanslant12-regular.otf'
p221
sg22
g23
sbag7
(g8
g9
NtRp222
(dp223
g12
g13
sg14
S'Myriad Pro'
p224
sg16
I400
sg17
g18
sg19
g18
sg20
S'/Library/Fonts/MyriadPro-It.otf'
p225
sg22
g23
sbag7
(g8
g9
NtRp226
(dp227
g12
g18
sg14
S'Luxi Serif'
p228
sg16
I700
sg17
g18
sg19
g18
sg20
S'/usr/X11R6/lib/X11/fonts/TTF/luxirb.ttf'
p229
sg22
g23
sbag7
(g8
g9
NtRp230
(dp231
g12
g18
sg14
S'TeX Gyre Adventor'
p232
sg16
I400
sg17
g18
sg19
g18
sg20
S'/Library/Fonts/TeX Gyre/texgyreadventor-regular.otf'
p233
sg22
g23
sbag7
(g8
g9
NtRp234
(dp235
g12
g18
sg14
S'Corbel'
p236
sg16
I700
sg17
g18
sg19
g18
sg20
S'/Library/Fonts/Microsoft/Corbel Bold.ttf'
p237
sg22
g23
sbag7
(g8
g9
NtRp238
(dp239
g12
g18
sg14
S'Latin Modern Roman'
p240
sg16
I400
sg17
g18
sg19
g18
sg20
S'/Library/Fonts/Latin Modern/lmroman7-regular.otf'
p241
sg22
g23
sbag7
(g8
g9
NtRp242
(dp243
g12
g18
sg14
S'Nadeem'
p244
sg16
I400
sg17
g18
sg19
g18
sg20
S'/Library/Fonts/Nadeem.ttf'
p245
sg22
g23
sbag7
(g8
g9
NtRp246
(dp247
g12
g18
sg14
S'Al Bayan'
p248
sg16
I700
sg17
g18
sg19
g18
sg20
S'/Library/Fonts/AlBayanBold.ttf'
p249
sg22
g23
sbag7
(g8
g9
NtRp250
(dp251
g12
g18
sg14
S'Kozuka Gothic Pr6N'
p252
sg16
I400
sg17
g18
sg19
g18
sg20
S'/Library/Fonts/KozGoPr6N-Regular.otf'
p253
sg22
g23
sbag7
(g8
g9
NtRp254
(dp255
g12
g13
sg14
S'Arial'
p256
sg16
I700
sg17
g18
sg19
g18
sg20
S'/Library/Fonts/Arial Bold Italic.ttf'
p257
sg22
g23
sbag7
(g8
g9
NtRp258
(dp259
g12
g18
sg14
S'Tekton Pro'
p260
sg16
I700
sg17
g18
sg19
g18
sg20
S'/Library/Fonts/TektonPro-Bold.otf'
p261
sg22
g23
sbag7
(g8
g9
NtRp262
(dp263
g12
g18
sg14
S'TeX Gyre Bonum'
p264
sg16
I400
sg17
g18
sg19
g18
sg20
S'/Library/Fonts/TeX Gyre/texgyrebonum-regular.otf'
p265
sg22
g23
sbag7
(g8
g9
NtRp266
(dp267
g12
g18
sg14
S'Mshtakan'
p268
sg16
I700
sg17
g18
sg19
g18
sg20
S'/Library/Fonts/MshtakanBold.ttf'
p269
sg22
g23
sbag7
(g8
g9
NtRp270
(dp271
g12
g18
sg14
S'AppleGothic'
p272
sg16
I400
sg17
g18
sg19
g18
sg20
S'/System/Library/Fonts/AppleGothic.ttf'
p273
sg22
g23
sbag7
(g8
g9
NtRp274
(dp275
g12
g13
sg14
S'Liberation Serif'
p276
sg16
I400
sg17
g18
sg19
g18
sg20
S'/Users/ehowell/.fonts/LiberationSerif-Italic.ttf'
p277
sg22
g23
sbag7
(g8
g9
NtRp278
(dp279
g12
g18
sg14
S'Euphemia UCAS'
p280
sg16
I400
sg17
g18
sg19
g18
sg20
S'/Library/Fonts/EuphemiaCASRegular.ttf'
p281
sg22
g23
sbag7
(g8
g9
NtRp282
(dp283
g12
g74
sg14
S'Latin Modern Sans'
p284
sg16
I400
sg17
g18
sg19
g18
sg20
S'/Library/Fonts/Latin Modern/lmsans17-oblique.otf'
p285
sg22
g23
sbag7
(g8
g9
NtRp286
(dp287
g12
g18
sg14
S'Letter Gothic Std'
p288
sg16
I500
sg17
g18
sg19
g18
sg20
S'/Library/Fonts/LetterGothicStd.otf'
p289
sg22
g23
sbag7
(g8
g9
NtRp290
(dp291
g12
g18
sg14
S'Latin Modern Roman Dunhill'
p292
sg16
I400
sg17
g18
sg19
g18
sg20
S'/Library/Fonts/Latin Modern/lmromandunh10-regular.otf'
p293
sg22
g23
sbag7
(g8
g9
NtRp294
(dp295
g12
g13
sg14
S'Latin Modern Roman'
p296
sg16
I500
sg17
g18
sg19
g18
sg20
S'/Library/Fonts/Latin Modern/lmroman8-italic.otf'
p297
sg22
g23
sbag7
(g8
g9
NtRp298
(dp299
g12
g18
sg14
S'Latin Modern Mono Prop'
p300
sg16
I400
sg17
g18
sg19
g18
sg20
S'/Library/Fonts/Latin Modern/lmmonoprop10-regular.otf'
p301
sg22
g23
sbag7
(g8
g9
NtRp302
(dp303
g12
g18
sg14
S'Gurmukhi MT'
p304
sg16
I400
sg17
g18
sg19
g18
sg20
S'/Library/Fonts/Gurmukhi.ttf'
p305
sg22
g23
sbag7
(g8
g9
NtRp306
(dp307
g12
g13
sg14
S'Cambria'
p308
sg16
I400
sg17
g18
sg19
g18
sg20
S'/Library/Fonts/Microsoft/Cambria Italic.ttf'
p309
sg22
g23
sbag7
(g8
g9
NtRp310
(dp311
g12
g74
sg14
S'Tekton Pro'
p312
sg16
I700
sg17
g18
sg19
g18
sg20
S'/Library/Fonts/TektonPro-BoldObl.otf'
p313
sg22
g23
sbag7
(g8
g9
NtRp314
(dp315
g12
g18
sg14
S'Latin Modern Roman Slanted'
p316
sg16
I400
sg17
g18
sg19
g18
sg20
S'/Library/Fonts/Latin Modern/lmromanslant8-regular.otf'
p317
sg22
g23
sbag7
(g8
g9
NtRp318
(dp319
g12
g74
sg14
S'Luxi Serif'
p320
sg16
I400
sg17
g18
sg19
g18
sg20
S'/usr/X11R6/lib/X11/fonts/TTF/luxirri.ttf'
p321
sg22
g23
sbag7
(g8
g9
NtRp322
(dp323
g12
g74
sg14
S'Latin Modern Sans Quotation'
p324
sg16
I700
sg17
g18
sg19
g18
sg20
S'/Library/Fonts/Latin Modern/lmsansquot8-boldoblique.otf'
p325
sg22
g23
sbag7
(g8
g9
NtRp326
(dp327
g12
g18
sg14
S'Adobe Myungjo Std'
p328
sg16
I400
sg17
g18
sg19
g18
sg20
S'/Library/Fonts/AdobeMyungjoStd-Medium.otf'
p329
sg22
g23
sbag7
(g8
g9
NtRp330
(dp331
g12
g18
sg14
S'Hiragino Maru Gothic Pro'
p332
sg16
I400
sg17
g18
sg19
g18
sg20
S'/Library/Fonts/\xe3\x83\x92\xe3\x83\xa9\xe3\x82\xad\xe3\x82\x99\xe3\x83\x8e\xe4\xb8\xb8\xe3\x82\xb3\xe3\x82\x99 Pro W4.otf'
p333
sg22
g23
sbag7
(g8
g9
NtRp334
(dp335
g12
g13
sg14
S'Perpetua'
p336
sg16
I700
sg17
g18
sg19
g18
sg20
S'/Library/Fonts/Microsoft/Perpetua Bold Italic.ttf'
p337
sg22
g23
sbag7
(g8
g9
NtRp338
(dp339
g12
g18
sg14
S'Adobe Gothic Std'
p340
sg16
I700
sg17
g18
sg19
g18
sg20
S'/Library/Fonts/AdobeGothicStd-Bold.otf'
p341
sg22
g23
sbag7
(g8
g9
NtRp342
(dp343
g12
g13
sg14
S'New Peninim MT'
p344
sg16
I400
sg17
g18
sg19
g18
sg20
S'/Library/Fonts/NewPeninimMTInclined.ttf'
p345
sg22
g23
sbag7
(g8
g9
NtRp346
(dp347
g12
g18
sg14
S'Myriad Pro'
p348
sg16
I700
sg17
g18
sg19
g18
sg20
S'/Library/Fonts/MyriadPro-Semibold.otf'
p349
sg22
g23
sbag7
(g8
g9
NtRp350
(dp351
g12
g18
sg14
S'Franklin Gothic Medium'
p352
sg16
I500
sg17
g18
sg19
g18
sg20
S'/Library/Fonts/Microsoft/Franklin Gothic Medium.ttf'
p353
sg22
g23
sbag7
(g8
g9
NtRp354
(dp355
g12
g18
sg14
S'PCMyungjo'
p356
sg16
I400
sg17
g18
sg19
g18
sg20
S'/Library/Fonts/PCmyoungjo.ttf'
p357
sg22
g23
sbag7
(g8
g9
NtRp358
(dp359
g12
g18
sg14
S'Kozuka Mincho Pr6N'
p360
sg16
I700
sg17
g18
sg19
g18
sg20
S'/Library/Fonts/KozMinPr6N-Bold.otf'
p361
sg22
g23
sbag7
(g8
g9
NtRp362
(dp363
g12
g13
sg14
S'Verdana'
p364
sg16
I700
sg17
g18
sg19
g18
sg20
S'/Library/Fonts/Verdana Bold Italic.ttf'
p365
sg22
g23
sbag7
(g8
g9
NtRp366
(dp367
g12
g74
sg14
S'Latin Modern Sans Quotation'
p368
sg16
I700
sg17
g18
sg19
g18
sg20
S'/Library/Fonts/Latin Modern/lmsansquot8-oblique.otf'
p369
sg22
g23
sbag7
(g8
g9
NtRp370
(dp371
g12
g18
sg14
S'Kokonor'
p372
sg16
I400
sg17
g18
sg19
g18
sg20
S'/Library/Fonts/Kokonor.ttf'
p373
sg22
g23
sbag7
(g8
g9
NtRp374
(dp375
g12
g18
sg14
S'Estrangelo Edessa'
p376
sg16
I400
sg17
g18
sg19
g18
sg20
S'/usr/X11R6/lib/X11/fonts/OTF/SyrCOMEdessa.otf'
p377
sg22
g23
sbag7
(g8
g9
NtRp378
(dp379
g12
g18
sg14
S'Apple Braille'
p380
sg16
I400
sg17
g18
sg19
g18
sg20
S'/System/Library/Fonts/Apple Braille.ttf'
p381
sg22
g23
sbag7
(g8
g9
NtRp382
(dp383
g12
g18
sg14
S'Hiragino Mincho Pro'
p384
sg16
I700
sg17
g18
sg19
g18
sg20
S'/Library/Fonts/\xe3\x83\x92\xe3\x83\xa9\xe3\x82\xad\xe3\x82\x99\xe3\x83\x8e\xe6\x98\x8e\xe6\x9c\x9d Pro W6.otf'
p385
sg22
g23
sbag7
(g8
g9
NtRp386
(dp387
g12
g18
sg14
S'Serto Batnan'
p388
sg16
I700
sg17
g18
sg19
g18
sg20
S'/usr/X11R6/lib/X11/fonts/OTF/SyrCOMBatnanBold.otf'
p389
sg22
g23
sbag7
(g8
g9
NtRp390
(dp391
g12
g18
sg14
S'Kailasa'
p392
sg16
I400
sg17
g18
sg19
g18
sg20
S'/Library/Fonts/Kailasa.ttf'
p393
sg22
g23
sbag7
(g8
g9
NtRp394
(dp395
g12
g74
sg14
S'Latin Modern Mono Prop Light'
p396
sg16
I700
sg17
g18
sg19
g18
sg20
S'/Library/Fonts/Latin Modern/lmmonoproplt10-boldoblique.otf'
p397
sg22
g23
sbag7
(g8
g9
NtRp398
(dp399
g12
g18
sg14
S'Serto Malankara'
p400
sg16
I400
sg17
g18
sg19
g18
sg20
S'/usr/X11R6/lib/X11/fonts/OTF/SyrCOMMalankara.otf'
p401
sg22
g23
sbag7
(g8
g9
NtRp402
(dp403
g12
g18
sg14
S'MS Mincho'
p404
sg16
I400
sg17
g18
sg19
g18
sg20
S'/Library/Fonts/Microsoft/MS Mincho.ttf'
p405
sg22
g23
sbag7
(g8
g9
NtRp406
(dp407
g12
g18
sg14
S'Tekton Pro'
p408
sg16
I700
sg17
g18
sg19
g18
sg20
S'/Library/Fonts/TektonPro-BoldExt.otf'
p409
sg22
g23
sbag7
(g8
g9
NtRp410
(dp411
g12
g13
sg14
S'Chaparral Pro'
p412
sg16
I400
sg17
g18
sg19
g18
sg20
S'/Library/Fonts/ChaparralPro-Italic.otf'
p413
sg22
g23
sbag7
(g8
g9
NtRp414
(dp415
g12
g18
sg14
S'Comic Sans MS'
p416
sg16
I700
sg17
g18
sg19
g18
sg20
S'/Library/Fonts/Comic Sans MS Bold.ttf'
p417
sg22
g23
sbag7
(g8
g9
NtRp418
(dp419
g12
g13
sg14
S'Adobe Caslon Pro'
p420
sg16
I400
sg17
g18
sg19
g18
sg20
S'/Library/Fonts/ACaslonPro-Italic.otf'
p421
sg22
g23
sbag7
(g8
g9
NtRp422
(dp423
g12
g13
sg14
S'Adobe Garamond Pro'
p424
sg16
I700
sg17
g18
sg19
g18
sg20
S'/Library/Fonts/AGaramondPro-BoldItalic.otf'
p425
sg22
g23
sbag7
(g8
g9
NtRp426
(dp427
g12
g18
sg14
S'Estrangelo TurAbdin'
p428
sg16
I400
sg17
g18
sg19
g18
sg20
S'/usr/X11R6/lib/X11/fonts/OTF/SyrCOMTurAbdin.otf'
p429
sg22
g23
sbag7
(g8
g9
NtRp430
(dp431
g12
g18
sg14
S'Webdings'
p432
sg16
I400
sg17
g18
sg19
g18
sg20
S'/Library/Fonts/Webdings.ttf'
p433
sg22
g23
sbag7
(g8
g9
NtRp434
(dp435
g12
g18
sg14
S'Apple Braille'
p436
sg16
I400
sg17
g18
sg19
g18
sg20
S'/System/Library/Fonts/Apple Braille Pinpoint 6 Dot.ttf'
p437
sg22
g23
sbag7
(g8
g9
NtRp438
(dp439
g12
g13
sg14
S'Liberation Sans'
p440
sg16
I700
sg17
g18
sg19
g18
sg20
S'/Users/ehowell/.fonts/LiberationSans-BoldItalic.ttf'
p441
sg22
g23
sbag7
(g8
g9
NtRp442
(dp443
g12
g18
sg14
S'Kozuka Mincho Pr6N'
p444
sg16
I700
sg17
g18
sg19
g18
sg20
S'/Library/Fonts/KozMinPr6N-Heavy.otf'
p445
sg22
g23
sbag7
(g8
g9
NtRp446
(dp447
g12
g18
sg14
S'Kozuka Gothic Pro'
p448
sg16
I700
sg17
g18
sg19
g18
sg20
S'/Library/Fonts/KozGoPro-Heavy.otf'
p449
sg22
g23
sbag7
(g8
g9
NtRp450
(dp451
g12
g13
sg14
S'Franklin Gothic Book'
p452
sg16
I400
sg17
g18
sg19
g18
sg20
S'/Library/Fonts/Microsoft/Franklin Gothic Book Italic.ttf'
p453
sg22
g23
sbag7
(g8
g9
NtRp454
(dp455
g12
g18
sg14
S'Latin Modern Mono Prop Light'
p456
sg16
I700
sg17
g18
sg19
g18
sg20
S'/Library/Fonts/Latin Modern/lmmonoproplt10-bold.otf'
p457
sg22
g23
sbag7
(g8
g9
NtRp458
(dp459
g12
g18
sg14
S'Goha-Tibeb Zemen'
p460
sg16
I400
sg17
g18
sg19
g18
sg20
S'/usr/X11R6/lib/X11/fonts/OTF/GohaTibebZemen.otf'
p461
sg22
g23
sbag7
(g8
g9
NtRp462
(dp463
g12
g13
sg14
S'Courier New'
p464
sg16
I400
sg17
g18
sg19
g18
sg20
S'/Library/Fonts/Courier New Italic.ttf'
p465
sg22
g23
sbag7
(g8
g9
NtRp466
(dp467
g12
g18
sg14
S'Meiryo'
p468
sg16
I400
sg17
g18
sg19
g18
sg20
S'/Library/Fonts/Microsoft/Meiryo.ttf'
p469
sg22
g23
sbag7
(g8
g9
NtRp470
(dp471
g12
g13
sg14
S'Minion Pro'
p472
sg16
I500
sg17
g18
sg19
g18
sg20
S'/Library/Fonts/MinionPro-MediumIt.otf'
p473
sg22
g23
sbag7
(g8
g9
NtRp474
(dp475
g12
g18
sg14
S'Kozuka Mincho Pro'
p476
sg16
I400
sg17
g18
sg19
g18
sg20
S'/Library/Fonts/KozMinPro-Regular.otf'
p477
sg22
g23
sbag7
(g8
g9
NtRp478
(dp479
g12
g18
sg14
S'Kai'
p480
sg16
I400
sg17
g18
sg19
g18
sg20
S'/Library/Fonts/Kai.ttf'
p481
sg22
g23
sbag7
(g8
g9
NtRp482
(dp483
g12
g18
sg14
S'TeX Gyre Pagella'
p484
sg16
I700
sg17
g18
sg19
g18
sg20
S'/Library/Fonts/TeX Gyre/texgyrepagella-bold.otf'
p485
sg22
g23
sbag7
(g8
g9
NtRp486
(dp487
g12
g18
sg14
S'STHeiti'
p488
sg16
I400
sg17
g18
sg19
g18
sg20
S'/System/Library/Fonts/\xe5\x8d\x8e\xe6\x96\x87\xe7\xbb\x86\xe9\xbb\x91.ttf'
p489
sg22
g23
sbag7
(g8
g9
NtRp490
(dp491
g12
g18
sg14
S'Latin Modern Mono Prop Light'
p492
sg16
I400
sg17
g18
sg19
g18
sg20
S'/Library/Fonts/Latin Modern/lmmonoproplt10-regular.otf'
p493
sg22
g23
sbag7
(g8
g9
NtRp494
(dp495
g12
g18
sg14
S'Arial Black'
p496
sg16
I900
sg17
g18
sg19
g18
sg20
S'/Library/Fonts/Arial Black.ttf'
p497
sg22
g23
sbag7
(g8
g9
NtRp498
(dp499
g12
g13
sg14
S'Myriad Pro'
p500
sg16
I700
sg17
g18
sg19
g18
sg20
S'/Library/Fonts/MyriadPro-SemiboldIt.otf'
p501
sg22
g23
sbag7
(g8
g9
NtRp502
(dp503
g12
g18
sg14
S'Latin Modern Roman'
p504
sg16
I400
sg17
g18
sg19
g18
sg20
S'/Library/Fonts/Latin Modern/lmroman5-regular.otf'
p505
sg22
g23
sbag7
(g8
g9
NtRp506
(dp507
g12
g18
sg14
S'Wingdings 3'
p508
sg16
I400
sg17
g18
sg19
g18
sg20
S'/Library/Fonts/Wingdings 3.ttf'
p509
sg22
g23
sbag7
(g8
g9
NtRp510
(dp511
g12
g13
sg14
S'Myriad Pro'
p512
sg16
I700
sg17
g192
sg19
g18
sg20
S'/Library/Fonts/MyriadPro-BoldCondIt.otf'
p513
sg22
g23
sbag7
(g8
g9
NtRp514
(dp515
g12
g74
sg14
S'Latin Modern Mono Caps'
p516
sg16
I400
sg17
g18
sg19
g18
sg20
S'/Library/Fonts/Latin Modern/lmmonocaps10-oblique.otf'
p517
sg22
g23
sbag7
(g8
g9
NtRp518
(dp519
g12
g18
sg14
S'Adobe Kaiti Std'
p520
sg16
I400
sg17
g18
sg19
g18
sg20
S'/Library/Fonts/AdobeKaitiStd-Regular.otf'
p521
sg22
g23
sbag7
(g8
g9
NtRp522
(dp523
g12
g13
sg14
S'Liberation Mono'
p524
sg16
I400
sg17
g18
sg19
g18
sg20
S'/Users/ehowell/.fonts/LiberationMono-Italic.ttf'
p525
sg22
g23
sbag7
(g8
g9
NtRp526
(dp527
g12
g18
sg14
S'Nueva Std'
p528
sg16
I400
sg17
g192
sg19
g18
sg20
S'/Library/Fonts/NuevaStd-Cond.otf'
p529
sg22
g23
sbag7
(g8
g9
NtRp530
(dp531
g12
g18
sg14
S'Arial Hebrew'
p532
sg16
I400
sg17
g18
sg19
g18
sg20
S'/Library/Fonts/ArialHB.ttf'
p533
sg22
g23
sbag7
(g8
g9
NtRp534
(dp535
g12
g18
sg14
S'Consolas'
p536
sg16
I400
sg17
g18
sg19
g18
sg20
S'/Library/Fonts/Microsoft/Consolas.ttf'
p537
sg22
g23
sbag7
(g8
g9
NtRp538
(dp539
g12
g18
sg14
S'Myriad Web Pro'
p540
sg16
I700
sg17
g18
sg19
g18
sg20
S'/Library/Fonts/MyriadWebPro-Bold.ttf'
p541
sg22
g23
sbag7
(g8
g9
NtRp542
(dp543
g12
g18
sg14
S'Latin Modern Roman'
p544
sg16
I400
sg17
g18
sg19
g18
sg20
S'/Library/Fonts/Latin Modern/lmroman6-regular.otf'
p545
sg22
g23
sbag7
(g8
g9
NtRp546
(dp547
g12
g18
sg14
S'Corsiva Hebrew'
p548
sg16
I700
sg17
g18
sg19
g18
sg20
S'/Library/Fonts/CorsivaBold.ttf'
p549
sg22
g23
sbag7
(g8
g9
NtRp550
(dp551
g12
g18
sg14
S'Kozuka Mincho Pr6N'
p552
sg16
I400
sg17
g18
sg19
g18
sg20
S'/Library/Fonts/KozMinPr6N-Light.otf'
p553
sg22
g23
sbag7
(g8
g9
NtRp554
(dp555
g12
g18
sg14
S'PMingLiU'
p556
sg16
I400
sg17
g18
sg19
g18
sg20
S'/Library/Fonts/Microsoft/PMingLiU.ttf'
p557
sg22
g23
sbag7
(g8
g9
NtRp558
(dp559
g12
g18
sg14
S'Kozuka Gothic Pr6N'
p560
sg16
I400
sg17
g18
sg19
g18
sg20
S'/Library/Fonts/KozGoPr6N-Medium.otf'
p561
sg22
g23
sbag7
(g8
g9
NtRp562
(dp563
g12
g18
sg14
S'Marlett'
p564
sg16
I400
sg17
g18
sg19
g18
sg20
S'/Library/Fonts/Microsoft/Marlett.ttf'
p565
sg22
g23
sbag7
(g8
g9
NtRp566
(dp567
g12
g18
sg14
S'Calibri'
p568
sg16
I700
sg17
g18
sg19
g18
sg20
S'/Library/Fonts/Microsoft/Calibri Bold.ttf'
p569
sg22
g23
sbag7
(g8
g9
NtRp570
(dp571
g12
g18
sg14
S'TeX Gyre Heros Cn'
p572
sg16
I700
sg17
g18
sg19
g18
sg20
S'/Library/Fonts/TeX Gyre/texgyreheroscn-bold.otf'
p573
sg22
g23
sbag7
(g8
g9
NtRp574
(dp575
g12
g74
sg14
S'Latin Modern Sans'
p576
sg16
I400
sg17
g18
sg19
g18
sg20
S'/Library/Fonts/Latin Modern/lmsans10-oblique.otf'
p577
sg22
g23
sbag7
(g8
g9
NtRp578
(dp579
g12
g18
sg14
S'Minion Pro'
p580
sg16
I500
sg17
g18
sg19
g18
sg20
S'/Library/Fonts/MinionPro-Medium.otf'
p581
sg22
g23
sbag7
(g8
g9
NtRp582
(dp583
g12
g18
sg14
S'Wingdings'
p584
sg16
I400
sg17
g18
sg19
g18
sg20
S'/Library/Fonts/Wingdings.ttf'
p585
sg22
g23
sbag7
(g8
g9
NtRp586
(dp587
g12
g18
sg14
S'Impact'
p588
sg16
I400
sg17
g18
sg19
g18
sg20
S'/Library/Fonts/Impact.ttf'
p589
sg22
g23
sbag7
(g8
g9
NtRp590
(dp591
g12
g18
sg14
S'TeX Gyre Bonum'
p592
sg16
I700
sg17
g18
sg19
g18
sg20
S'/Library/Fonts/TeX Gyre/texgyrebonum-bold.otf'
p593
sg22
g23
sbag7
(g8
g9
NtRp594
(dp595
g12
g18
sg14
S'Tahoma'
p596
sg16
I700
sg17
g18
sg19
g18
sg20
S'/Library/Fonts/Tahoma Bold.ttf'
p597
sg22
g23
sbag7
(g8
g9
NtRp598
(dp599
g12
g13
sg14
S'Georgia'
p600
sg16
I700
sg17
g18
sg19
g18
sg20
S'/Library/Fonts/Georgia Bold Italic.ttf'
p601
sg22
g23
sbag7
(g8
g9
NtRp602
(dp603
g12
g18
sg14
S'Tekton Pro'
p604
sg16
I700
sg17
g192
sg19
g18
sg20
S'/Library/Fonts/TektonPro-BoldCond.otf'
p605
sg22
g23
sbag7
(g8
g9
NtRp606
(dp607
g12
g74
sg14
S'Latin Modern Sans'
p608
sg16
I400
sg17
g18
sg19
g18
sg20
S'/Library/Fonts/Latin Modern/lmsans9-oblique.otf'
p609
sg22
g23
sbag7
(g8
g9
NtRp610
(dp611
g12
g18
sg14
S'Hoefler Text'
p612
sg16
I400
sg17
g18
sg19
g18
sg20
S'/Library/Fonts/Hoefler Text Ornaments.ttf'
p613
sg22
g23
sbag7
(g8
g9
NtRp614
(dp615
g12
g13
sg14
S'Adobe Arabic'
p616
sg16
I400
sg17
g18
sg19
g18
sg20
S'/Library/Fonts/AdobeArabic-Italic.otf'
p617
sg22
g23
sbag7
(g8
g9
NtRp618
(dp619
g12
g18
sg14
S'Hiragino Mincho ProN'
p620
sg16
I700
sg17
g18
sg19
g18
sg20
S'/System/Library/Fonts/\xe3\x83\x92\xe3\x83\xa9\xe3\x82\xad\xe3\x82\x99\xe3\x83\x8e\xe6\x98\x8e\xe6\x9c\x9d ProN W6.otf'
p621
sg22
g23
sbag7
(g8
g9
NtRp622
(dp623
g12
g74
sg14
S'Latin Modern Roman Demi'
p624
sg16
I600
sg17
g18
sg19
g18
sg20
S'/Library/Fonts/Latin Modern/lmromandemi10-oblique.otf'
p625
sg22
g23
sbag7
(g8
g9
NtRp626
(dp627
g12
g18
sg14
S'Rosewood Std'
p628
sg16
I400
sg17
g18
sg19
g18
sg20
S'/Library/Fonts/RosewoodStd-Regular.otf'
p629
sg22
g23
sbag7
(g8
g9
NtRp630
(dp631
g12
g74
sg14
S'Latin Modern Mono Prop'
p632
sg16
I400
sg17
g18
sg19
g18
sg20
S'/Library/Fonts/Latin Modern/lmmonoprop10-oblique.otf'
p633
sg22
g23
sbag7
(g8
g9
NtRp634
(dp635
g12
g13
sg14
S'TeX Gyre Schola'
p636
sg16
I700
sg17
g18
sg19
g18
sg20
S'/Library/Fonts/TeX Gyre/texgyreschola-bolditalic.otf'
p637
sg22
g23
sbag7
(g8
g9
NtRp638
(dp639
g12
g18
sg14
S'Adobe Arabic'
p640
sg16
I700
sg17
g18
sg19
g18
sg20
S'/Library/Fonts/AdobeArabic-Bold.otf'
p641
sg22
g23
sbag7
(g8
g9
NtRp642
(dp643
g12
g18
sg14
S'PilGi'
p644
sg16
I400
sg17
g18
sg19
g18
sg20
S'/Library/Fonts/Pilgiche.ttf'
p645
sg22
g23
sbag7
(g8
g9
NtRp646
(dp647
g12
g18
sg14
S'Gill Sans MT'
p648
sg16
I400
sg17
g18
sg19
g18
sg20
S'/Library/Fonts/Microsoft/Gill Sans MT.ttf'
p649
sg22
g23
sbag7
(g8
g9
NtRp650
(dp651
g12
g18
sg14
S'Latin Modern Sans'
p652
sg16
I400
sg17
g18
sg19
g18
sg20
S'/Library/Fonts/Latin Modern/lmsans17-regular.otf'
p653
sg22
g23
sbag7
(g8
g9
NtRp654
(dp655
g12
g74
sg14
S'Latin Modern Sans'
p656
sg16
I400
sg17
g18
sg19
g18
sg20
S'/Library/Fonts/Latin Modern/lmsans12-oblique.otf'
p657
sg22
g23
sbag7
(g8
g9
NtRp658
(dp659
g12
g18
sg14
S'Liberation Serif'
p660
sg16
I700
sg17
g18
sg19
g18
sg20
S'/Users/ehowell/.fonts/LiberationSerif-Bold.ttf'
p661
sg22
g23
sbag7
(g8
g9
NtRp662
(dp663
g12
g18
sg14
S'Constantia'
p664
sg16
I400
sg17
g18
sg19
g18
sg20
S'/Library/Fonts/Microsoft/Constantia.ttf'
p665
sg22
g23
sbag7
(g8
g9
NtRp666
(dp667
g12
g18
sg14
S'Gujarati MT'
p668
sg16
I700
sg17
g18
sg19
g18
sg20
S'/Library/Fonts/GujaratiMTBold.ttf'
p669
sg22
g23
sbag7
(g8
g9
NtRp670
(dp671
g12
g18
sg14
S'Latin Modern Roman'
p672
sg16
I400
sg17
g18
sg19
g18
sg20
S'/Library/Fonts/Latin Modern/lmroman10-regular.otf'
p673
sg22
g23
sbag7
(g8
g9
NtRp674
(dp675
g12
g13
sg14
S'Letter Gothic Std'
p676
sg16
I700
sg17
g18
sg19
g18
sg20
S'/Library/Fonts/LetterGothicStd-BoldSlanted.otf'
p677
sg22
g23
sbag7
(g8
g9
NtRp678
(dp679
g12
g13
sg14
S'Nueva Std'
p680
sg16
I400
sg17
g192
sg19
g18
sg20
S'/Library/Fonts/NuevaStd-CondItalic.otf'
p681
sg22
g23
sbag7
(g8
g9
NtRp682
(dp683
g12
g18
sg14
S'Zapf Dingbats'
p684
sg16
I400
sg17
g18
sg19
g18
sg20
S'/System/Library/Fonts/ZapfDingbats.ttf'
p685
sg22
g23
sbag7
(g8
g9
NtRp686
(dp687
g12
g18
sg14
S'Latin Modern Mono Slanted'
p688
sg16
I400
sg17
g18
sg19
g18
sg20
S'/Library/Fonts/Latin Modern/lmmonoslant10-regular.otf'
p689
sg22
g23
sbag7
(g8
g9
NtRp690
(dp691
g12
g13
sg14
S'Liberation Sans'
p692
sg16
I400
sg17
g18
sg19
g18
sg20
S'/Users/ehowell/.fonts/LiberationSans-Italic.ttf'
p693
sg22
g23
sbag7
(g8
g9
NtRp694
(dp695
g12
g13
sg14
S'Calibri'
p696
sg16
I700
sg17
g18
sg19
g18
sg20
S'/Library/Fonts/Microsoft/Calibri Bold Italic.ttf'
p697
sg22
g23
sbag7
(g8
g9
NtRp698
(dp699
g12
g18
sg14
S'Apple LiSung'
p700
sg16
I200
sg17
g18
sg19
g18
sg20
S'/Library/Fonts/Apple LiSung Light.ttf'
p701
sg22
g23
sbag7
(g8
g9
NtRp702
(dp703
g12
g13
sg14
S'Corbel'
p704
sg16
I700
sg17
g18
sg19
g18
sg20
S'/Library/Fonts/Microsoft/Corbel Bold Italic.ttf'
p705
sg22
g23
sbag7
(g8
g9
NtRp706
(dp707
g12
g18
sg14
S'Adobe Garamond Pro'
p708
sg16
I700
sg17
g18
sg19
g18
sg20
S'/Library/Fonts/AGaramondPro-Bold.otf'
p709
sg22
g23
sbag7
(g8
g9
NtRp710
(dp711
g12
g18
sg14
S'Stencil Std'
p712
sg16
I700
sg17
g18
sg19
g18
sg20
S'/Library/Fonts/StencilStd.otf'
p713
sg22
g23
sbag7
(g8
g9
NtRp714
(dp715
g12
g18
sg14
S'Myriad Pro'
p716
sg16
I400
sg17
g18
sg19
g18
sg20
S'/Library/Fonts/MyriadPro-Regular.otf'
p717
sg22
g23
sbag7
(g8
g9
NtRp718
(dp719
g12
g74
sg14
S'Latin Modern Mono Prop Light'
p720
sg16
I200
sg17
g18
sg19
g18
sg20
S'/Library/Fonts/Latin Modern/lmmonoproplt10-oblique.otf'
p721
sg22
g23
sbag7
(g8
g9
NtRp722
(dp723
g12
g18
sg14
S'Myriad Pro'
p724
sg16
I400
sg17
g192
sg19
g18
sg20
S'/Library/Fonts/MyriadPro-Cond.otf'
p725
sg22
g23
sbag7
(g8
g9
NtRp726
(dp727
g12
g18
sg14
S'Helvetica'
p728
sg16
I200
sg17
g18
sg19
g18
sg20
S'/System/Library/Fonts/HelveticaLight.ttf'
p729
sg22
g23
sbag7
(g8
g9
NtRp730
(dp731
g12
g13
sg14
S'Trebuchet MS'
p732
sg16
I700
sg17
g18
sg19
g18
sg20
S'/Library/Fonts/Trebuchet MS Bold Italic.ttf'
p733
sg22
g23
sbag7
(g8
g9
NtRp734
(dp735
g12
g18
sg14
S'Adobe Ming Std'
p736
sg16
I400
sg17
g18
sg19
g18
sg20
S'/Library/Fonts/AdobeMingStd-Light.otf'
p737
sg22
g23
sbag7
(g8
g9
NtRp738
(dp739
g12
g13
sg14
S'TeX Gyre Heros Cn'
p740
sg16
I700
sg17
g18
sg19
g18
sg20
S'/Library/Fonts/TeX Gyre/texgyreheroscn-bolditalic.otf'
p741
sg22
g23
sbag7
(g8
g9
NtRp742
(dp743
g12
g74
sg14
S'Latin Modern Mono Light'
p744
sg16
I200
sg17
g18
sg19
g18
sg20
S'/Library/Fonts/Latin Modern/lmmonolt10-oblique.otf'
p745
sg22
g23
sbag7
(g8
g9
NtRp746
(dp747
g12
g18
sg14
S'Latin Modern Roman Unslanted'
p748
sg16
I400
sg17
g18
sg19
g18
sg20
S'/Library/Fonts/Latin Modern/lmromanunsl10-regular.otf'
p749
sg22
g23
sbag7
(g8
g9
NtRp750
(dp751
g12
g74
sg14
S'Latin Modern Sans'
p752
sg16
I400
sg17
g18
sg19
g18
sg20
S'/Library/Fonts/Latin Modern/lmsans8-oblique.otf'
p753
sg22
g23
sbag7
(g8
g9
NtRp754
(dp755
g12
g18
sg14
S'Meiryo'
p756
sg16
I700
sg17
g18
sg19
g18
sg20
S'/Library/Fonts/Microsoft/Meiryo Bold.ttf'
p757
sg22
g23
sbag7
(g8
g9
NtRp758
(dp759
g12
g18
sg14
S'Latin Modern Roman'
p760
sg16
I700
sg17
g18
sg19
g18
sg20
S'/Library/Fonts/Latin Modern/lmroman5-bold.otf'
p761
sg22
g23
sbag7
(g8
g9
NtRp762
(dp763
g12
g18
sg14
S'Cooper Std'
p764
sg16
I900
sg17
g18
sg19
g18
sg20
S'/Library/Fonts/CooperBlackStd.otf'
p765
sg22
g23
sbag7
(g8
g9
NtRp766
(dp767
g12
g18
sg14
S'Estrangelo Midyat'
p768
sg16
I400
sg17
g18
sg19
g18
sg20
S'/usr/X11R6/lib/X11/fonts/OTF/SyrCOMMidyat.otf'
p769
sg22
g23
sbag7
(g8
g9
NtRp770
(dp771
g12
g18
sg14
S'Kozuka Gothic Pro'
p772
sg16
I400
sg17
g18
sg19
g18
sg20
S'/Library/Fonts/KozGoPro-ExtraLight.otf'
p773
sg22
g23
sbag7
(g8
g9
NtRp774
(dp775
g12
g18
sg14
S'Serto Urhoy'
p776
sg16
I700
sg17
g18
sg19
g18
sg20
S'/usr/X11R6/lib/X11/fonts/OTF/SyrCOMUrhoyBold.otf'
p777
sg22
g23
sbag7
(g8
g9
NtRp778
(dp779
g12
g13
sg14
S'Tw Cen MT'
p780
sg16
I400
sg17
g18
sg19
g18
sg20
S'/Library/Fonts/Microsoft/Tw Cen MT Italic.ttf'
p781
sg22
g23
sbag7
(g8
g9
NtRp782
(dp783
g12
g18
sg14
S'Bookshelf Symbol 7'
p784
sg16
I400
sg17
g18
sg19
g18
sg20
S'/Library/Fonts/Microsoft/Bookshelf Symbol 7.ttf'
p785
sg22
g23
sbag7
(g8
g9
NtRp786
(dp787
g12
g13
sg14
S'Chaparral Pro'
p788
sg16
I700
sg17
g18
sg19
g18
sg20
S'/Library/Fonts/ChaparralPro-BoldIt.otf'
p789
sg22
g23
sbag7
(g8
g9
NtRp790
(dp791
g12
g18
sg14
S'Consolas'
p792
sg16
I700
sg17
g18
sg19
g18
sg20
S'/Library/Fonts/Microsoft/Consolas Bold.ttf'
p793
sg22
g23
sbag7
(g8
g9
NtRp794
(dp795
g12
g13
sg14
S'TeX Gyre Bonum'
p796
sg16
I700
sg17
g18
sg19
g18
sg20
S'/Library/Fonts/TeX Gyre/texgyrebonum-bolditalic.otf'
p797
sg22
g23
sbag7
(g8
g9
NtRp798
(dp799
g12
g13
sg14
S'TeX Gyre Pagella'
p800
sg16
I700
sg17
g18
sg19
g18
sg20
S'/Library/Fonts/TeX Gyre/texgyrepagella-bolditalic.otf'
p801
sg22
g23
sbag7
(g8
g9
NtRp802
(dp803
g12
g13
sg14
S'Perpetua'
p804
sg16
I400
sg17
g18
sg19
g18
sg20
S'/Library/Fonts/Microsoft/Perpetua Italic.ttf'
p805
sg22
g23
sbag7
(g8
g9
NtRp806
(dp807
g12
g13
sg14
S'Latin Modern Roman'
p808
sg16
I500
sg17
g18
sg19
g18
sg20
S'/Library/Fonts/Latin Modern/lmroman12-italic.otf'
p809
sg22
g23
sbag7
(g8
g9
NtRp810
(dp811
g12
g18
sg14
S'Adobe Song Std'
p812
sg16
I400
sg17
g18
sg19
g18
sg20
S'/Library/Fonts/AdobeSongStd-Light.otf'
p813
sg22
g23
sbag7
(g8
g9
NtRp814
(dp815
g12
g18
sg14
S'Hiragino Sans GB'
p816
sg16
I400
sg17
g18
sg19
g18
sg20
S'/Library/Fonts/Hiragino Sans GB W3.otf'
p817
sg22
g23
sbag7
(g8
g9
NtRp818
(dp819
g12
g18
sg14
S'Liberation Sans'
p820
sg16
I400
sg17
g18
sg19
g18
sg20
S'/Users/ehowell/.fonts/LiberationSans-Regular.ttf'
p821
sg22
g23
sbag7
(g8
g9
NtRp822
(dp823
g12
g13
sg14
S'Adobe Hebrew'
p824
sg16
I700
sg17
g18
sg19
g18
sg20
S'/Library/Fonts/AdobeHebrew-BoldItalic.otf'
p825
sg22
g23
sbag7
(g8
g9
NtRp826
(dp827
g12
g18
sg14
S'Serto Batnan'
p828
sg16
I400
sg17
g18
sg19
g18
sg20
S'/usr/X11R6/lib/X11/fonts/OTF/SyrCOMBatnan.otf'
p829
sg22
g23
sbag7
(g8
g9
NtRp830
(dp831
g12
g18
sg14
S'Verdana'
p832
sg16
I400
sg17
g18
sg19
g18
sg20
S'/Library/Fonts/Verdana.ttf'
p833
sg22
g23
sbag7
(g8
g9
NtRp834
(dp835
g12
g18
sg14
S'Myriad Web Pro'
p836
sg16
I400
sg17
g18
sg19
g18
sg20
S'/Library/Fonts/MyriadWebPro.ttf'
p837
sg22
g23
sbag7
(g8
g9
NtRp838
(dp839
g12
g74
sg14
S'Latin Modern Sans'
p840
sg16
I700
sg17
g18
sg19
g18
sg20
S'/Library/Fonts/Latin Modern/lmsans10-boldoblique.otf'
p841
sg22
g23
sbag7
(g8
g9
NtRp842
(dp843
g12
g13
sg14
S'Arial'
p844
sg16
I400
sg17
g18
sg19
g18
sg20
S'/Library/Fonts/Arial Italic.ttf'
p845
sg22
g23
sbag7
(g8
g9
NtRp846
(dp847
g12
g18
sg14
S'Prestige Elite Std'
p848
sg16
I700
sg17
g18
sg19
g18
sg20
S'/Library/Fonts/PrestigeEliteStd-Bd.otf'
p849
sg22
g23
sbag7
(g8
g9
NtRp850
(dp851
g12
g13
sg14
S'Verdana'
p852
sg16
I400
sg17
g18
sg19
g18
sg20
S'/Library/Fonts/Verdana Italic.ttf'
p853
sg22
g23
sbag7
(g8
g9
NtRp854
(dp855
g12
g18
sg14
S'Brush Script Std'
p856
sg16
I500
sg17
g18
sg19
g18
sg20
S'/Library/Fonts/BrushScriptStd.otf'
p857
sg22
g23
sbag7
(g8
g9
NtRp858
(dp859
g12
g18
sg14
S'Latin Modern Mono'
p860
sg16
I400
sg17
g18
sg19
g18
sg20
S'/Library/Fonts/Latin Modern/lmmono8-regular.otf'
p861
sg22
g23
sbag7
(g8
g9
NtRp862
(dp863
g12
g13
sg14
S'Liberation Mono'
p864
sg16
I700
sg17
g18
sg19
g18
sg20
S'/Users/ehowell/.fonts/LiberationMono-BoldItalic.ttf'
p865
sg22
g23
sbag7
(g8
g9
NtRp866
(dp867
g12
g18
sg14
S'Raanana'
p868
sg16
I400
sg17
g18
sg19
g18
sg20
S'/Library/Fonts/Raanana.ttf'
p869
sg22
g23
sbag7
(g8
g9
NtRp870
(dp871
g12
g18
sg14
S'Thonburi'
p872
sg16
I700
sg17
g18
sg19
g18
sg20
S'/System/Library/Fonts/ThonburiBold.ttf'
p873
sg22
g23
sbag7
(g8
g9
NtRp874
(dp875
g12
g74
sg14
S'Luxi Serif'
p876
sg16
I700
sg17
g18
sg19
g18
sg20
S'/usr/X11R6/lib/X11/fonts/TTF/luxirbi.ttf'
p877
sg22
g23
sbag7
(g8
g9
NtRp878
(dp879
g12
g18
sg14
S'East Syriac Ctesiphon'
p880
sg16
I400
sg17
g18
sg19
g18
sg20
S'/usr/X11R6/lib/X11/fonts/OTF/SyrCOMCtesiphon.otf'
p881
sg22
g23
sbag7
(g8
g9
NtRp882
(dp883
g12
g18
sg14
S'Adobe Caslon Pro'
p884
sg16
I700
sg17
g18
sg19
g18
sg20
S'/Library/Fonts/ACaslonPro-Bold.otf'
p885
sg22
g23
sbag7
(g8
g9
NtRp886
(dp887
g12
g18
sg14
S'Myriad Pro'
p888
sg16
I700
sg17
g192
sg19
g18
sg20
S'/Library/Fonts/MyriadPro-BoldCond.otf'
p889
sg22
g23
sbag7
(g8
g9
NtRp890
(dp891
g12
g18
sg14
S'LiSong Pro'
p892
sg16
I400
sg17
g18
sg19
g18
sg20
S'/Library/Fonts/\xe5\x84\xb7\xe5\xae\x8b Pro.ttf'
p893
sg22
g23
sbag7
(g8
g9
NtRp894
(dp895
g12
g18
sg14
S'Georgia'
p896
sg16
I700
sg17
g18
sg19
g18
sg20
S'/Library/Fonts/Georgia Bold.ttf'
p897
sg22
g23
sbag7
(g8
g9
NtRp898
(dp899
g12
g18
sg14
S'Chalkduster'
p900
sg16
I400
sg17
g18
sg19
g18
sg20
S'/Library/Fonts/Chalkduster.ttf'
p901
sg22
g23
sbag7
(g8
g9
NtRp902
(dp903
g12
g13
sg14
S'Minion Pro'
p904
sg16
I700
sg17
g18
sg19
g18
sg20
S'/Library/Fonts/MinionPro-BoldIt.otf'
p905
sg22
g23
sbag7
(g8
g9
NtRp906
(dp907
g12
g18
sg14
S'Adobe Caslon Pro'
p908
sg16
I400
sg17
g18
sg19
g18
sg20
S'/Library/Fonts/ACaslonPro-Regular.otf'
p909
sg22
g23
sbag7
(g8
g9
NtRp910
(dp911
g12
g18
sg14
S'Mesquite Std'
p912
sg16
I500
sg17
g18
sg19
g18
sg20
S'/Library/Fonts/MesquiteStd.otf'
p913
sg22
g23
sbag7
(g8
g9
NtRp914
(dp915
g12
g18
sg14
S'Big Caslon'
p916
sg16
I500
sg17
g18
sg19
g18
sg20
S'/Library/Fonts/BigCaslon.ttf'
p917
sg22
g23
sbag7
(g8
g9
NtRp918
(dp919
g12
g18
sg14
S'Latin Modern Roman'
p920
sg16
I400
sg17
g18
sg19
g18
sg20
S'/Library/Fonts/Latin Modern/lmroman17-regular.otf'
p921
sg22
g23
sbag7
(g8
g9
NtRp922
(dp923
g12
g18
sg14
S'Ayuthaya'
p924
sg16
I400
sg17
g18
sg19
g18
sg20
S'/Library/Fonts/Ayuthaya.ttf'
p925
sg22
g23
sbag7
(g8
g9
NtRp926
(dp927
g12
g18
sg14
S'Serto Kharput'
p928
sg16
I400
sg17
g18
sg19
g18
sg20
S'/usr/X11R6/lib/X11/fonts/OTF/SyrCOMKharput.otf'
p929
sg22
g23
sbag7
(g8
g9
NtRp930
(dp931
g12
g18
sg14
S'Serto Jerusalem'
p932
sg16
I700
sg17
g18
sg19
g18
sg20
S'/usr/X11R6/lib/X11/fonts/OTF/SyrCOMJerusalemBold.otf'
p933
sg22
g23
sbag7
(g8
g9
NtRp934
(dp935
g12
g18
sg14
S'Orator Std'
p936
sg16
I500
sg17
g18
sg19
g18
sg20
S'/Library/Fonts/OratorStd.otf'
p937
sg22
g23
sbag7
(g8
g9
NtRp938
(dp939
g12
g18
sg14
S'Blackoak Std'
p940
sg16
I900
sg17
g18
sg19
g18
sg20
S'/Library/Fonts/BlackoakStd.otf'
p941
sg22
g23
sbag7
(g8
g9
NtRp942
(dp943
g12
g18
sg14
S'Hiragino Kaku Gothic Pro'
p944
sg16
I700
sg17
g18
sg19
g18
sg20
S'/Library/Fonts/\xe3\x83\x92\xe3\x83\xa9\xe3\x82\xad\xe3\x82\x99\xe3\x83\x8e\xe8\xa7\x92\xe3\x82\xb3\xe3\x82\x99 Pro W6.otf'
p945
sg22
g23
sbag7
(g8
g9
NtRp946
(dp947
g12
g13
sg14
S'Minion Pro'
p948
sg16
I400
sg17
g18
sg19
g18
sg20
S'/Library/Fonts/MinionPro-It.otf'
p949
sg22
g23
sbag7
(g8
g9
NtRp950
(dp951
g12
g13
sg14
S'Latin Modern Roman'
p952
sg16
I500
sg17
g18
sg19
g18
sg20
S'/Library/Fonts/Latin Modern/lmroman7-italic.otf'
p953
sg22
g23
sbag7
(g8
g9
NtRp954
(dp955
g12
g18
sg14
S'MS Reference Specialty'
p956
sg16
I400
sg17
g18
sg19
g18
sg20
S'/Library/Fonts/Microsoft/MS Reference Specialty.ttf'
p957
sg22
g23
sbag7
(g8
g9
NtRp958
(dp959
g12
g18
sg14
S'Minion Pro'
p960
sg16
I700
sg17
g18
sg19
g18
sg20
S'/Library/Fonts/MinionPro-Bold.otf'
p961
sg22
g23
sbag7
(g8
g9
NtRp962
(dp963
g12
g18
sg14
S'Serto Urhoy'
p964
sg16
I400
sg17
g18
sg19
g18
sg20
S'/usr/X11R6/lib/X11/fonts/OTF/SyrCOMUrhoy.otf'
p965
sg22
g23
sbag7
(g8
g9
NtRp966
(dp967
g12
g18
sg14
S'TeX Gyre Pagella'
p968
sg16
I400
sg17
g18
sg19
g18
sg20
S'/Library/Fonts/TeX Gyre/texgyrepagella-regular.otf'
p969
sg22
g23
sbag7
(g8
g9
NtRp970
(dp971
g12
g13
sg14
S'Minion Pro'
p972
sg16
I700
sg17
g192
sg19
g18
sg20
S'/Library/Fonts/MinionPro-BoldCnIt.otf'
p973
sg22
g23
sbag7
(g8
g9
NtRp974
(dp975
g12
g18
sg14
S'Andale Mono'
p976
sg16
I400
sg17
g18
sg19
g18
sg20
S'/Library/Fonts/Andale Mono.ttf'
p977
sg22
g23
sbag7
(g8
g9
NtRp978
(dp979
g12
g13
sg14
S'Consolas'
p980
sg16
I400
sg17
g18
sg19
g18
sg20
S'/Library/Fonts/Microsoft/Consolas Italic.ttf'
p981
sg22
g23
sbag7
(g8
g9
NtRp982
(dp983
g12
g18
sg14
S'Latin Modern Roman'
p984
sg16
I700
sg17
g18
sg19
g18
sg20
S'/Library/Fonts/Latin Modern/lmroman10-bold.otf'
p985
sg22
g23
sbag7
(g8
g9
NtRp986
(dp987
g12
g18
sg14
S'Letter Gothic Std'
p988
sg16
I700
sg17
g18
sg19
g18
sg20
S'/Library/Fonts/LetterGothicStd-Bold.otf'
p989
sg22
g23
sbag7
(g8
g9
NtRp990
(dp991
g12
g18
sg14
S'Silom'
p992
sg16
I400
sg17
g18
sg19
g18
sg20
S'/Library/Fonts/Silom.ttf'
p993
sg22
g23
sbag7
(g8
g9
NtRp994
(dp995
g12
g13
sg14
S'TeX Gyre Schola'
p996
sg16
I400
sg17
g18
sg19
g18
sg20
S'/Library/Fonts/TeX Gyre/texgyreschola-italic.otf'
p997
sg22
g23
sbag7
(g8
g9
NtRp998
(dp999
g12
g74
sg14
S'Mshtakan'
p1000
sg16
I700
sg17
g18
sg19
g18
sg20
S'/Library/Fonts/MshtakanBoldOblique.ttf'
p1001
sg22
g23
sbag7
(g8
g9
NtRp1002
(dp1003
g12
g74
sg14
S'Luxi Sans'
p1004
sg16
I400
sg17
g18
sg19
g18
sg20
S'/usr/X11R6/lib/X11/fonts/TTF/luxisri.ttf'
p1005
sg22
g23
sbag7
(g8
g9
NtRp1006
(dp1007
g12
g13
sg14
S'Calibri'
p1008
sg16
I400
sg17
g18
sg19
g18
sg20
S'/Library/Fonts/Microsoft/Calibri Italic.ttf'
p1009
sg22
g23
sbag7
(g8
g9
NtRp1010
(dp1011
g12
g18
sg14
S'Adobe Fan Heiti Std'
p1012
sg16
I700
sg17
g18
sg19
g18
sg20
S'/Library/Fonts/AdobeFanHeitiStd-Bold.otf'
p1013
sg22
g23
sbag7
(g8
g9
NtRp1014
(dp1015
g12
g18
sg14
S'Kozuka Gothic Pr6N'
p1016
sg16
I700
sg17
g18
sg19
g18
sg20
S'/Library/Fonts/KozGoPr6N-Heavy.otf'
p1017
sg22
g23
sbag7
(g8
g9
NtRp1018
(dp1019
g12
g18
sg14
S'Gulim'
p1020
sg16
I400
sg17
g18
sg19
g18
sg20
S'/Library/Fonts/Microsoft/Gulim.ttf'
p1021
sg22
g23
sbag7
(g8
g9
NtRp1022
(dp1023
g12
g18
sg14
S'Goha-Tibeb Zemen'
p1024
sg16
I400
sg17
g18
sg19
g18
sg20
S'/usr/X11R6/lib/X11/fonts/TTF/GohaTibebZemen.ttf'
p1025
sg22
g23
sbag7
(g8
g9
NtRp1026
(dp1027
g12
g18
sg14
S'KufiStandardGK'
p1028
sg16
I400
sg17
g18
sg19
g18
sg20
S'/Library/Fonts/KufiStandardGK.ttf'
p1029
sg22
g23
sbag7
(g8
g9
NtRp1030
(dp1031
g12
g13
sg14
S'Serto Jerusalem'
p1032
sg16
I400
sg17
g18
sg19
g18
sg20
S'/usr/X11R6/lib/X11/fonts/OTF/SyrCOMJerusalemItalic.otf'
p1033
sg22
g23
sbag7
(g8
g9
NtRp1034
(dp1035
g12
g18
sg14
S'Latin Modern Mono Caps'
p1036
sg16
I400
sg17
g18
sg19
g18
sg20
S'/Library/Fonts/Latin Modern/lmmonocaps10-regular.otf'
p1037
sg22
g23
sbag7
(g8
g9
NtRp1038
(dp1039
g12
g18
sg14
S'Hei'
p1040
sg16
I400
sg17
g18
sg19
g18
sg20
S'/Library/Fonts/Hei.ttf'
p1041
sg22
g23
sbag7
(g8
g9
NtRp1042
(dp1043
g12
g13
sg14
S'Latin Modern Roman'
p1044
sg16
I500
sg17
g18
sg19
g18
sg20
S'/Library/Fonts/Latin Modern/lmroman9-italic.otf'
p1045
sg22
g23
sbag7
(g8
g9
NtRp1046
(dp1047
g12
g18
sg14
S'TeX Gyre Schola'
p1048
sg16
I700
sg17
g18
sg19
g18
sg20
S'/Library/Fonts/TeX Gyre/texgyreschola-bold.otf'
p1049
sg22
g23
sbag7
(g8
g9
NtRp1050
(dp1051
g12
g13
sg14
S'Cambria'
p1052
sg16
I700
sg17
g18
sg19
g18
sg20
S'/Library/Fonts/Microsoft/Cambria Bold Italic.ttf'
p1053
sg22
g23
sbag7
(g8
g9
NtRp1054
(dp1055
g12
g18
sg14
S'Hiragino Mincho ProN'
p1056
sg16
I400
sg17
g18
sg19
g18
sg20
S'/System/Library/Fonts/\xe3\x83\x92\xe3\x83\xa9\xe3\x82\xad\xe3\x82\x99\xe3\x83\x8e\xe6\x98\x8e\xe6\x9c\x9d ProN W3.otf'
p1057
sg22
g23
sbag7
(g8
g9
NtRp1058
(dp1059
g12
g13
sg14
S'Adobe Caslon Pro'
p1060
sg16
I700
sg17
g18
sg19
g18
sg20
S'/Library/Fonts/ACaslonPro-BoldItalic.otf'
p1061
sg22
g23
sbag7
(g8
g9
NtRp1062
(dp1063
g12
g13
sg14
S'Adobe Caslon Pro'
p1064
sg16
I700
sg17
g18
sg19
g18
sg20
S'/Library/Fonts/ACaslonPro-SemiboldItalic.otf'
p1065
sg22
g23
sbag7
(g8
g9
NtRp1066
(dp1067
g12
g13
sg14
S'TeX Gyre Heros'
p1068
sg16
I700
sg17
g18
sg19
g18
sg20
S'/Library/Fonts/TeX Gyre/texgyreheros-bolditalic.otf'
p1069
sg22
g23
sbag7
(g8
g9
NtRp1070
(dp1071
g12
g13
sg14
S'New Peninim MT'
p1072
sg16
I700
sg17
g18
sg19
g18
sg20
S'/Library/Fonts/NewPeninimMTBoldInclined.ttf'
p1073
sg22
g23
sbag7
(g8
g9
NtRp1074
(dp1075
g12
g18
sg14
S'Latin Modern Roman'
p1076
sg16
I700
sg17
g18
sg19
g18
sg20
S'/Library/Fonts/Latin Modern/lmroman8-bold.otf'
p1077
sg22
g23
sbag7
(g8
g9
NtRp1078
(dp1079
g12
g18
sg14
S'OCR A Std'
p1080
sg16
I400
sg17
g18
sg19
g18
sg20
S'/Library/Fonts/OCRAStd.otf'
p1081
sg22
g23
sbag7
(g8
g9
NtRp1082
(dp1083
g12
g18
sg14
S'Verdana'
p1084
sg16
I700
sg17
g18
sg19
g18
sg20
S'/Library/Fonts/Verdana Bold.ttf'
p1085
sg22
g23
sbag7
(g8
g9
NtRp1086
(dp1087
g12
g13
sg14
S'Adobe Hebrew'
p1088
sg16
I400
sg17
g18
sg19
g18
sg20
S'/Library/Fonts/AdobeHebrew-Italic.otf'
p1089
sg22
g23
sbag7
(g8
g9
NtRp1090
(dp1091
g12
g18
sg14
S'Estrangelo Talada'
p1092
sg16
I400
sg17
g18
sg19
g18
sg20
S'/usr/X11R6/lib/X11/fonts/OTF/SyrCOMTalada.otf'
p1093
sg22
g23
sbag7
(g8
g9
NtRp1094
(dp1095
g12
g13
sg14
S'Latin Modern Roman'
p1096
sg16
I500
sg17
g18
sg19
g18
sg20
S'/Library/Fonts/Latin Modern/lmroman10-italic.otf'
p1097
sg22
g23
sbag7
(g8
g9
NtRp1098
(dp1099
g12
g18
sg14
S'New Peninim MT'
p1100
sg16
I400
sg17
g18
sg19
g18
sg20
S'/Library/Fonts/NewPeninimMT.ttf'
p1101
sg22
g23
sbag7
(g8
g9
NtRp1102
(dp1103
g12
g18
sg14
S'TeX Gyre Heros'
p1104
sg16
I400
sg17
g18
sg19
g18
sg20
S'/Library/Fonts/TeX Gyre/texgyreheros-regular.otf'
p1105
sg22
g23
sbag7
(g8
g9
NtRp1106
(dp1107
g12
g18
sg14
S'Estrangelo Nisibin'
p1108
sg16
I400
sg17
g18
sg19
g18
sg20
S'/usr/X11R6/lib/X11/fonts/OTF/SyrCOMNisibin.otf'
p1109
sg22
g23
sbag7
(g8
g9
NtRp1110
(dp1111
g12
g18
sg14
S'Arial'
p1112
sg16
I400
sg17
g18
sg19
g18
sg20
S'/Library/Fonts/Arial.ttf'
p1113
sg22
g23
sbag7
(g8
g9
NtRp1114
(dp1115
g12
g18
sg14
S'TeX Gyre Chorus'
p1116
sg16
I400
sg17
g18
sg19
g18
sg20
S'/Library/Fonts/TeX Gyre/texgyrechorus-mediumitalic.otf'
p1117
sg22
g23
sbag7
(g8
g9
NtRp1118
(dp1119
g12
g18
sg14
S'Arial Narrow'
p1120
sg16
I400
sg17
g192
sg19
g18
sg20
S'/Library/Fonts/Arial Narrow.ttf'
p1121
sg22
g23
sbag7
(g8
g9
NtRp1122
(dp1123
g12
g74
sg14
S'Mshtakan'
p1124
sg16
I400
sg17
g18
sg19
g18
sg20
S'/Library/Fonts/MshtakanOblique.ttf'
p1125
sg22
g23
sbag7
(g8
g9
NtRp1126
(dp1127
g12
g13
sg14
S'Euphemia UCAS'
p1128
sg16
I400
sg17
g18
sg19
g18
sg20
S'/Library/Fonts/EuphemiaCASItalic.ttf'
p1129
sg22
g23
sbag7
(g8
g9
NtRp1130
(dp1131
g12
g18
sg14
S'Corsiva Hebrew'
p1132
sg16
I400
sg17
g18
sg19
g18
sg20
S'/Library/Fonts/Corsiva.ttf'
p1133
sg22
g23
sbag7
(g8
g9
NtRp1134
(dp1135
g12
g18
sg14
S'Liberation Serif'
p1136
sg16
I400
sg17
g18
sg19
g18
sg20
S'/Users/ehowell/.fonts/LiberationSerif-Regular.ttf'
p1137
sg22
g23
sbag7
(g8
g9
NtRp1138
(dp1139
g12
g18
sg14
S'Arial Narrow'
p1140
sg16
I700
sg17
g192
sg19
g18
sg20
S'/Library/Fonts/Arial Narrow Bold.ttf'
p1141
sg22
g23
sbag7
(g8
g9
NtRp1142
(dp1143
g12
g13
sg14
S'Times New Roman'
p1144
sg16
I500
sg17
g18
sg19
g18
sg20
S'/Library/Fonts/Times New Roman Italic.ttf'
p1145
sg22
g23
sbag7
(g8
g9
NtRp1146
(dp1147
g12
g13
sg14
S'Myriad Web Pro'
p1148
sg16
I400
sg17
g18
sg19
g18
sg20
S'/Library/Fonts/MyriadWebPro-Italic.ttf'
p1149
sg22
g23
sbag7
(g8
g9
NtRp1150
(dp1151
g12
g18
sg14
S'Georgia'
p1152
sg16
I400
sg17
g18
sg19
g18
sg20
S'/Library/Fonts/Georgia.ttf'
p1153
sg22
g23
sbag7
(g8
g9
NtRp1154
(dp1155
g12
g13
sg14
S'Nueva Std'
p1156
sg16
I700
sg17
g192
sg19
g18
sg20
S'/Library/Fonts/NuevaStd-BoldCondItalic.otf'
p1157
sg22
g23
sbag7
(g8
g9
NtRp1158
(dp1159
g12
g18
sg14
S'Charlemagne Std'
p1160
sg16
I700
sg17
g18
sg19
g18
sg20
S'/Library/Fonts/CharlemagneStd-Bold.otf'
p1161
sg22
g23
sbag7
(g8
g9
NtRp1162
(dp1163
g12
g18
sg14
S'Trebuchet MS'
p1164
sg16
I700
sg17
g18
sg19
g18
sg20
S'/Library/Fonts/Trebuchet MS Bold.ttf'
p1165
sg22
g23
sbag7
(g8
g9
NtRp1166
(dp1167
g12
g18
sg14
S'Constantia'
p1168
sg16
I700
sg17
g18
sg19
g18
sg20
S'/Library/Fonts/Microsoft/Constantia Bold.ttf'
p1169
sg22
g23
sbag7
(g8
g9
NtRp1170
(dp1171
g12
g18
sg14
S'Minion Pro'
p1172
sg16
I400
sg17
g18
sg19
g18
sg20
S'/Library/Fonts/MinionPro-Regular.otf'
p1173
sg22
g23
sbag7
(g8
g9
NtRp1174
(dp1175
g12
g18
sg14
S'Latin Modern Roman'
p1176
sg16
I700
sg17
g18
sg19
g18
sg20
S'/Library/Fonts/Latin Modern/lmroman6-bold.otf'
p1177
sg22
g23
sbag7
(g8
g9
NtRp1178
(dp1179
g12
g13
sg14
S'Times New Roman'
p1180
sg16
I700
sg17
g18
sg19
g18
sg20
S'/Library/Fonts/Times New Roman Bold Italic.ttf'
p1181
sg22
g23
sbag7
(g8
g9
NtRp1182
(dp1183
g12
g13
sg14
S'Arial Narrow'
p1184
sg16
I400
sg17
g192
sg19
g18
sg20
S'/Library/Fonts/Arial Narrow Italic.ttf'
p1185
sg22
g23
sbag7
(g8
g9
NtRp1186
(dp1187
g12
g18
sg14
S'Latin Modern Sans Quotation'
p1188
sg16
I700
sg17
g18
sg19
g18
sg20
S'/Library/Fonts/Latin Modern/lmsansquot8-bold.otf'
p1189
sg22
g23
sbag7
(g8
g9
NtRp1190
(dp1191
g12
g18
sg14
S'Tw Cen MT'
p1192
sg16
I700
sg17
g18
sg19
g18
sg20
S'/Library/Fonts/Microsoft/Tw Cen MT Bold.ttf'
p1193
sg22
g23
sbag7
(g8
g9
NtRp1194
(dp1195
g12
g18
sg14
S'Plantagenet Cherokee'
p1196
sg16
I400
sg17
g18
sg19
g18
sg20
S'/Library/Fonts/PlantagenetCherokee.ttf'
p1197
sg22
g23
sbag7
(g8
g9
NtRp1198
(dp1199
g12
g18
sg14
S'BiauKai'
p1200
sg16
I400
sg17
g18
sg19
g18
sg20
S'/Library/Fonts/BiauKai.ttf'
p1201
sg22
g23
sbag7
(g8
g9
NtRp1202
(dp1203
g12
g13
sg14
S'Brush Script MT'
p1204
sg16
I400
sg17
g18
sg19
g18
sg20
S'/Library/Fonts/Microsoft/Brush Script.ttf'
p1205
sg22
g23
sbag7
(g8
g9
NtRp1206
(dp1207
g12
g13
sg14
S'Tw Cen MT'
p1208
sg16
I700
sg17
g18
sg19
g18
sg20
S'/Library/Fonts/Microsoft/Tw Cen MT Bold Italic.ttf'
p1209
sg22
g23
sbag7
(g8
g9
NtRp1210
(dp1211
g12
g13
sg14
S'Candara'
p1212
sg16
I700
sg17
g18
sg19
g18
sg20
S'/Library/Fonts/Microsoft/Candara Bold Italic.ttf'
p1213
sg22
g23
sbag7
(g8
g9
NtRp1214
(dp1215
g12
g18
sg14
S'Hiragino Kaku Gothic ProN'
p1216
sg16
I700
sg17
g18
sg19
g18
sg20
S'/System/Library/Fonts/\xe3\x83\x92\xe3\x83\xa9\xe3\x82\xad\xe3\x82\x99\xe3\x83\x8e\xe8\xa7\x92\xe3\x82\xb3\xe3\x82\x99 ProN W6.otf'
p1217
sg22
g23
sbag7
(g8
g9
NtRp1218
(dp1219
g12
g18
sg14
S'Latin Modern Mono'
p1220
sg16
I400
sg17
g18
sg19
g18
sg20
S'/Library/Fonts/Latin Modern/lmmono10-regular.otf'
p1221
sg22
g23
sbag7
(g8
g9
NtRp1222
(dp1223
g12
g18
sg14
S'STHeiti'
p1224
sg16
I400
sg17
g18
sg19
g18
sg20
S'/System/Library/Fonts/\xe5\x8d\x8e\xe6\x96\x87\xe9\xbb\x91\xe4\xbd\x93.ttf'
p1225
sg22
g23
sbag7
(g8
g9
NtRp1226
(dp1227
g12
g18
sg14
S'Birch Std'
p1228
sg16
I400
sg17
g18
sg19
g18
sg20
S'/Library/Fonts/BirchStd.otf'
p1229
sg22
g23
sbag7
(g8
g9
NtRp1230
(dp1231
g12
g18
sg14
S'Serto Jerusalem'
p1232
sg16
I400
sg17
g18
sg19
g18
sg20
S'/usr/X11R6/lib/X11/fonts/OTF/SyrCOMJerusalem.otf'
p1233
sg22
g23
sbag7
(g8
g9
NtRp1234
(dp1235
g12
g18
sg14
S'Latin Modern Sans Demi Cond'
p1236
sg16
I600
sg17
g192
sg19
g18
sg20
S'/Library/Fonts/Latin Modern/lmsansdemicond10-regular.otf'
p1237
sg22
g23
sbag7
(g8
g9
NtRp1238
(dp1239
g12
g18
sg14
S'Skia'
p1240
sg16
I400
sg17
g18
sg19
g18
sg20
S'/Library/Fonts/Skia.ttf'
p1241
sg22
g23
sbag7
(g8
g9
NtRp1242
(dp1243
g12
g18
sg14
S'Kozuka Gothic Pr6N'
p1244
sg16
I700
sg17
g18
sg19
g18
sg20
S'/Library/Fonts/KozGoPr6N-Bold.otf'
p1245
sg22
g23
sbag7
(g8
g9
NtRp1246
(dp1247
g12
g18
sg14
S'Adobe Arabic'
p1248
sg16
I400
sg17
g18
sg19
g18
sg20
S'/Library/Fonts/AdobeArabic-Regular.otf'
p1249
sg22
g23
sbag7
(g8
g9
NtRp1250
(dp1251
g12
g74
sg14
S'Luxi Sans'
p1252
sg16
I700
sg17
g18
sg19
g18
sg20
S'/usr/X11R6/lib/X11/fonts/TTF/luxisbi.ttf'
p1253
sg22
g23
sbag7
(g8
g9
NtRp1254
(dp1255
g12
g18
sg14
S'STKaiti'
p1256
sg16
I400
sg17
g18
sg19
g18
sg20
S'/Library/Fonts/\xe5\x8d\x8e\xe6\x96\x87\xe6\xa5\xb7\xe4\xbd\x93.ttf'
p1257
sg22
g23
sbag7
(g8
g9
NtRp1258
(dp1259
g12
g18
sg14
S'STFangsong'
p1260
sg16
I400
sg17
g18
sg19
g18
sg20
S'/Library/Fonts/\xe5\x8d\x8e\xe6\x96\x87\xe4\xbb\xbf\xe5\xae\x8b.ttf'
p1261
sg22
g23
sbag7
(g8
g9
NtRp1262
(dp1263
g12
g18
sg14
S'Lucida Console'
p1264
sg16
I400
sg17
g18
sg19
g18
sg20
S'/Library/Fonts/Microsoft/Lucida Console.ttf'
p1265
sg22
g23
sbag7
(g8
g9
NtRp1266
(dp1267
g12
g18
sg14
S'Lithos Pro'
p1268
sg16
I400
sg17
g18
sg19
g18
sg20
S'/Library/Fonts/LithosPro-Regular.otf'
p1269
sg22
g23
sbag7
(g8
g9
NtRp1270
(dp1271
g12
g18
sg14
S'Trajan Pro'
p1272
sg16
I400
sg17
g18
sg19
g18
sg20
S'/Library/Fonts/TrajanPro-Regular.otf'
p1273
sg22
g23
sbag7
(g8
g9
NtRp1274
(dp1275
g12
g18
sg14
S'Kozuka Mincho Pro'
p1276
sg16
I700
sg17
g18
sg19
g18
sg20
S'/Library/Fonts/KozMinPro-Bold.otf'
p1277
sg22
g23
sbag7
(g8
g9
NtRp1278
(dp1279
g12
g18
sg14
S'Perpetua'
p1280
sg16
I400
sg17
g18
sg19
g18
sg20
S'/Library/Fonts/Microsoft/Perpetua.ttf'
p1281
sg22
g23
sbag7
(g8
g9
NtRp1282
(dp1283
g12
g18
sg14
S'Nueva Std'
p1284
sg16
I700
sg17
g192
sg19
g18
sg20
S'/Library/Fonts/NuevaStd-BoldCond.otf'
p1285
sg22
g23
sbag7
(g8
g9
NtRp1286
(dp1287
g12
g18
sg14
S'Cambria'
p1288
sg16
I700
sg17
g18
sg19
g18
sg20
S'/Library/Fonts/Microsoft/Cambria Bold.ttf'
p1289
sg22
g23
sbag7
(g8
g9
NtRp1290
(dp1291
g12
g13
sg14
S'TeX Gyre Pagella'
p1292
sg16
I400
sg17
g18
sg19
g18
sg20
S'/Library/Fonts/TeX Gyre/texgyrepagella-italic.otf'
p1293
sg22
g23
sbag7
(g8
g9
NtRp1294
(dp1295
g12
g18
sg14
S'Latin Modern Sans'
p1296
sg16
I400
sg17
g18
sg19
g18
sg20
S'/Library/Fonts/Latin Modern/lmsans10-regular.otf'
p1297
sg22
g23
sbag7
(g8
g9
NtRp1298
(dp1299
g12
g13
sg14
S'Courier New'
p1300
sg16
I700
sg17
g18
sg19
g18
sg20
S'/Library/Fonts/Courier New Bold Italic.ttf'
p1301
sg22
g23
sbag7
(g8
g9
NtRp1302
(dp1303
g12
g18
sg14
S'Arial Rounded MT Bold'
p1304
sg16
I700
sg17
g18
sg19
g18
sg20
S'/Library/Fonts/Arial Rounded Bold.ttf'
p1305
sg22
g23
sbag7
(g8
g9
NtRp1306
(dp1307
g12
g18
sg14
S'Latin Modern Roman Demi'
p1308
sg16
I600
sg17
g18
sg19
g18
sg20
S'/Library/Fonts/Latin Modern/lmromandemi10-regular.otf'
p1309
sg22
g23
sbag7
(g8
g9
NtRp1310
(dp1311
g12
g18
sg14
S'Trajan Pro'
p1312
sg16
I700
sg17
g18
sg19
g18
sg20
S'/Library/Fonts/TrajanPro-Bold.otf'
p1313
sg22
g23
sbag7
(g8
g9
NtRp1314
(dp1315
g12
g13
sg14
S'Adobe Arabic'
p1316
sg16
I700
sg17
g18
sg19
g18
sg20
S'/Library/Fonts/AdobeArabic-BoldItalic.otf'
p1317
sg22
g23
sbag7
(g8
g9
NtRp1318
(dp1319
g12
g18
sg14
S'Kozuka Gothic Pr6N'
p1320
sg16
I400
sg17
g18
sg19
g18
sg20
S'/Library/Fonts/KozGoPr6N-Light.otf'
p1321
sg22
g23
sbag7
(g8
g9
NtRp1322
(dp1323
g12
g18
sg14
S'Latin Modern Roman'
p1324
sg16
I700
sg17
g18
sg19
g18
sg20
S'/Library/Fonts/Latin Modern/lmroman9-bold.otf'
p1325
sg22
g23
sbag7
(g8
g9
NtRp1326
(dp1327
g12
g13
sg14
S'Franklin Gothic Medium'
p1328
sg16
I500
sg17
g18
sg19
g18
sg20
S'/Library/Fonts/Microsoft/Franklin Gothic Medium Italic.ttf'
p1329
sg22
g23
sbag7
(g8
g9
NtRp1330
(dp1331
g12
g18
sg14
S'Liberation Mono'
p1332
sg16
I400
sg17
g18
sg19
g18
sg20
S'/Users/ehowell/.fonts/LiberationMono-Regular.ttf'
p1333
sg22
g23
sbag7
(g8
g9
NtRp1334
(dp1335
g12
g18
sg14
S'Latin Modern Mono'
p1336
sg16
I400
sg17
g18
sg19
g18
sg20
S'/Library/Fonts/Latin Modern/lmmono12-regular.otf'
p1337
sg22
g23
sbag7
(g8
g9
NtRp1338
(dp1339
g12
g13
sg14
S'Constantia'
p1340
sg16
I400
sg17
g18
sg19
g18
sg20
S'/Library/Fonts/Microsoft/Constantia Italic.ttf'
p1341
sg22
g23
sbag7
(g8
g9
NtRp1342
(dp1343
g12
g18
sg14
S'InaiMathi'
p1344
sg16
I400
sg17
g18
sg19
g18
sg20
S'/Library/Fonts/InaiMathi.ttf'
p1345
sg22
g23
sbag7
(g8
g9
NtRp1346
(dp1347
g12
g18
sg14
S'Latin Modern Roman Caps'
p1348
sg16
I400
sg17
g18
sg19
g18
sg20
S'/Library/Fonts/Latin Modern/lmromancaps10-regular.otf'
p1349
sg22
g23
sbag7
(g8
g9
NtRp1350
(dp1351
g12
g13
sg14
S'TeX Gyre Bonum'
p1352
sg16
I400
sg17
g18
sg19
g18
sg20
S'/Library/Fonts/TeX Gyre/texgyrebonum-italic.otf'
p1353
sg22
g23
sbag7
(g8
g9
NtRp1354
(dp1355
g12
g18
sg14
S'Cambria'
p1356
sg16
I400
sg17
g18
sg19
g18
sg20
S'/Library/Fonts/Microsoft/Cambria.ttf'
p1357
sg22
g23
sbag7
(g8
g9
NtRp1358
(dp1359
g12
g13
sg14
S'Latin Modern Roman'
p1360
sg16
I700
sg17
g18
sg19
g18
sg20
S'/Library/Fonts/Latin Modern/lmroman10-bolditalic.otf'
p1361
sg22
g23
sbag7
(g8
g9
NtRp1362
(dp1363
g12
g18
sg14
S'Batang'
p1364
sg16
I400
sg17
g18
sg19
g18
sg20
S'/Library/Fonts/Microsoft/Batang.ttf'
p1365
sg22
g23
sbag7
(g8
g9
NtRp1366
(dp1367
g12
g18
sg14
S'Kozuka Gothic Pro'
p1368
sg16
I400
sg17
g18
sg19
g18
sg20
S'/Library/Fonts/KozGoPro-Light.otf'
p1369
sg22
g23
sbag7
(g8
g9
NtRp1370
(dp1371
g12
g18
sg14
S'Luxi Serif'
p1372
sg16
I400
sg17
g18
sg19
g18
sg20
S'/usr/X11R6/lib/X11/fonts/TTF/luxirr.ttf'
p1373
sg22
g23
sbag7
(g8
g9
NtRp1374
(dp1375
g12
g18
sg14
S'Minion Pro'
p1376
sg16
I700
sg17
g18
sg19
g18
sg20
S'/Library/Fonts/MinionPro-Semibold.otf'
p1377
sg22
g23
sbag7
(g8
g9
NtRp1378
(dp1379
g12
g18
sg14
S'Kozuka Mincho Pro'
p1380
sg16
I700
sg17
g18
sg19
g18
sg20
S'/Library/Fonts/KozMinPro-Heavy.otf'
p1381
sg22
g23
sbag7
(g8
g9
NtRp1382
(dp1383
g12
g13
sg14
S'TeX Gyre Heros Cn'
p1384
sg16
I400
sg17
g18
sg19
g18
sg20
S'/Library/Fonts/TeX Gyre/texgyreheroscn-italic.otf'
p1385
sg22
g23
sbag7
(g8
g9
NtRp1386
(dp1387
g12
g13
sg14
S'Letter Gothic Std'
p1388
sg16
I400
sg17
g18
sg19
g18
sg20
S'/Library/Fonts/LetterGothicStd-Slanted.otf'
p1389
sg22
g23
sbag7
(g8
g9
NtRp1390
(dp1391
g12
g18
sg14
S'DecoType Naskh'
p1392
sg16
I400
sg17
g18
sg19
g18
sg20
S'/Library/Fonts/DecoTypeNaskh.ttf'
p1393
sg22
g23
sbag7
(g8
g9
NtRp1394
(dp1395
g12
g18
sg14
S'TeX Gyre Termes'
p1396
sg16
I700
sg17
g18
sg19
g18
sg20
S'/Library/Fonts/TeX Gyre/texgyretermes-bold.otf'
p1397
sg22
g23
sbag7
(g8
g9
NtRp1398
(dp1399
g12
g18
sg14
S'Latin Modern Roman Slanted'
p1400
sg16
I400
sg17
g18
sg19
g18
sg20
S'/Library/Fonts/Latin Modern/lmromanslant10-regular.otf'
p1401
sg22
g23
sbag7
(g8
g9
NtRp1402
(dp1403
g12
g13
sg14
S'Myriad Pro'
p1404
sg16
I700
sg17
g18
sg19
g18
sg20
S'/Library/Fonts/MyriadPro-BoldIt.otf'
p1405
sg22
g23
sbag7
(g8
g9
NtRp1406
(dp1407
g12
g18
sg14
S'HeadLineA'
p1408
sg16
I400
sg17
g18
sg19
g18
sg20
S'/Library/Fonts/HeadlineA.ttf'
p1409
sg22
g23
sbag7
(g8
g9
NtRp1410
(dp1411
g12
g18
sg14
S'Arial Hebrew'
p1412
sg16
I700
sg17
g18
sg19
g18
sg20
S'/Library/Fonts/ArialHBBold.ttf'
p1413
sg22
g23
sbag7
(g8
g9
NtRp1414
(dp1415
g12
g18
sg14
S'.Keyboard'
p1416
sg16
I400
sg17
g18
sg19
g18
sg20
S'/System/Library/Fonts/Keyboard.ttf'
p1417
sg22
g23
sbag7
(g8
g9
NtRp1418
(dp1419
g12
g18
sg14
S'Hiragino Kaku Gothic Std'
p1420
sg16
I700
sg17
g18
sg19
g18
sg20
S'/Library/Fonts/\xe3\x83\x92\xe3\x83\xa9\xe3\x82\xad\xe3\x82\x99\xe3\x83\x8e\xe8\xa7\x92\xe3\x82\xb3\xe3\x82\x99 Std W8.otf'
p1421
sg22
g23
sbag7
(g8
g9
NtRp1422
(dp1423
g12
g18
sg14
S'Lucida Sans Unicode'
p1424
sg16
I400
sg17
g18
sg19
g18
sg20
S'/Library/Fonts/Microsoft/Lucida Sans Unicode.ttf'
p1425
sg22
g23
sbag7
(g8
g9
NtRp1426
(dp1427
g12
g18
sg14
S'Hiragino Sans GB'
p1428
sg16
I700
sg17
g18
sg19
g18
sg20
S'/Library/Fonts/Hiragino Sans GB W6.otf'
p1429
sg22
g23
sbag7
(g8
g9
NtRp1430
(dp1431
g12
g18
sg14
S'Geeza Pro'
p1432
sg16
I400
sg17
g18
sg19
g18
sg20
S'/System/Library/Fonts/Geeza Pro.ttf'
p1433
sg22
g23
sbag7
(g8
g9
NtRp1434
(dp1435
g12
g74
sg14
S'Luxi Mono'
p1436
sg16
I700
sg17
g18
sg19
g18
sg20
S'/usr/X11R6/lib/X11/fonts/TTF/luximbi.ttf'
p1437
sg22
g23
sbag7
(g8
g9
NtRp1438
(dp1439
g12
g13
sg14
S'Consolas'
p1440
sg16
I700
sg17
g18
sg19
g18
sg20
S'/Library/Fonts/Microsoft/Consolas Bold Italic.ttf'
p1441
sg22
g23
sbag7
(g8
g9
NtRp1442
(dp1443
g12
g18
sg14
S'Microsoft Sans Serif'
p1444
sg16
I400
sg17
g18
sg19
g18
sg20
S'/Library/Fonts/Microsoft Sans Serif.ttf'
p1445
sg22
g23
sbag7
(g8
g9
NtRp1446
(dp1447
g12
g18
sg14
S'TeX Gyre Schola'
p1448
sg16
I400
sg17
g18
sg19
g18
sg20
S'/Library/Fonts/TeX Gyre/texgyreschola-regular.otf'
p1449
sg22
g23
sbag7
(g8
g9
NtRp1450
(dp1451
g12
g13
sg14
S'Liberation Serif'
p1452
sg16
I700
sg17
g18
sg19
g18
sg20
S'/Users/ehowell/.fonts/LiberationSerif-BoldItalic.ttf'
p1453
sg22
g23
sbag7
(g8
g9
NtRp1454
(dp1455
g12
g18
sg14
S'Myriad Pro'
p1456
sg16
I700
sg17
g18
sg19
g18
sg20
S'/Library/Fonts/MyriadPro-Bold.otf'
p1457
sg22
g23
sbag7
(g8
g9
NtRp1458
(dp1459
g12
g18
sg14
S'Luxi Sans'
p1460
sg16
I700
sg17
g18
sg19
g18
sg20
S'/usr/X11R6/lib/X11/fonts/TTF/luxisb.ttf'
p1461
sg22
g23
sbag7
(g8
g9
NtRp1462
(dp1463
g12
g18
sg14
S'Hiragino Kaku Gothic Pro'
p1464
sg16
I400
sg17
g18
sg19
g18
sg20
S'/Library/Fonts/\xe3\x83\x92\xe3\x83\xa9\xe3\x82\xad\xe3\x82\x99\xe3\x83\x8e\xe8\xa7\x92\xe3\x82\xb3\xe3\x82\x99 Pro W3.otf'
p1465
sg22
g23
sbag7
(g8
g9
NtRp1466
(dp1467
g12
g18
sg14
S'Latin Modern Mono Light'
p1468
sg16
I400
sg17
g18
sg19
g18
sg20
S'/Library/Fonts/Latin Modern/lmmonolt10-regular.otf'
p1469
sg22
g23
sbag7
(g8
g9
NtRp1470
(dp1471
g12
g18
sg14
S'STSong'
p1472
sg16
I400
sg17
g18
sg19
g18
sg20
S'/Library/Fonts/\xe5\x8d\x8e\xe6\x96\x87\xe5\xae\x8b\xe4\xbd\x93.ttf'
p1473
sg22
g23
sbag7
(g8
g9
NtRp1474
(dp1475
g12
g18
sg14
S'Giddyup Std'
p1476
sg16
I400
sg17
g18
sg19
g18
sg20
S'/Library/Fonts/GiddyupStd.otf'
p1477
sg22
g23
sbag7
(g8
g9
NtRp1478
(dp1479
g12
g18
sg14
S'Apple Chancery'
p1480
sg16
I400
sg17
g18
sg19
g18
sg20
S'/Library/Fonts/Apple Chancery.ttf'
p1481
sg22
g23
sbag7
(g8
g9
NtRp1482
(dp1483
g12
g18
sg14
S'Serto Mardin'
p1484
sg16
I400
sg17
g18
sg19
g18
sg20
S'/usr/X11R6/lib/X11/fonts/OTF/SyrCOMMardin.otf'
p1485
sg22
g23
sbag7
(g8
g9
NtRp1486
(dp1487
g12
g18
sg14
S'Luxi Sans'
p1488
sg16
I400
sg17
g18
sg19
g18
sg20
S'/usr/X11R6/lib/X11/fonts/TTF/luxisr.ttf'
p1489
sg22
g23
sbag7
(g8
g9
NtRp1490
(dp1491
g12
g74
sg14
S'Latin Modern Mono Light'
p1492
sg16
I700
sg17
g18
sg19
g18
sg20
S'/Library/Fonts/Latin Modern/lmmonolt10-boldoblique.otf'
p1493
sg22
g23
sbag7
(g8
g9
NtRp1494
(dp1495
g12
g18
sg14
S'Adobe Hebrew'
p1496
sg16
I400
sg17
g18
sg19
g18
sg20
S'/Library/Fonts/AdobeHebrew-Regular.otf'
p1497
sg22
g23
sbag7
(g8
g9
NtRp1498
(dp1499
g12
g18
sg14
S'New Peninim MT'
p1500
sg16
I700
sg17
g18
sg19
g18
sg20
S'/Library/Fonts/NewPeninimMTBold.ttf'
p1501
sg22
g23
sbag7
(g8
g9
NtRp1502
(dp1503
g12
g18
sg14
S'Arial'
p1504
sg16
I700
sg17
g18
sg19
g18
sg20
S'/Library/Fonts/Arial Bold.ttf'
p1505
sg22
g23
sbag7
(g8
g9
NtRp1506
(dp1507
g12
g18
sg14
S'MS PGothic'
p1508
sg16
I400
sg17
g18
sg19
g18
sg20
S'/Library/Fonts/Microsoft/MS PGothic.ttf'
p1509
sg22
g23
sbag7
(g8
g9
NtRp1510
(dp1511
g12
g13
sg14
S'TeX Gyre Adventor'
p1512
sg16
I400
sg17
g18
sg19
g18
sg20
S'/Library/Fonts/TeX Gyre/texgyreadventor-italic.otf'
p1513
sg22
g23
sbag7
(g8
g9
NtRp1514
(dp1515
g12
g18
sg14
S'Latin Modern Mono Light'
p1516
sg16
I700
sg17
g18
sg19
g18
sg20
S'/Library/Fonts/Latin Modern/lmmonolt10-bold.otf'
p1517
sg22
g23
sbag7
(g8
g9
NtRp1518
(dp1519
g12
g13
sg14
S'TeX Gyre Termes'
p1520
sg16
I400
sg17
g18
sg19
g18
sg20
S'/Library/Fonts/TeX Gyre/texgyretermes-italic.otf'
p1521
sg22
g23
sbag7
(g8
g9
NtRp1522
(dp1523
g12
g74
sg14
S'Luxi Mono'
p1524
sg16
I400
sg17
g18
sg19
g18
sg20
S'/usr/X11R6/lib/X11/fonts/TTF/luximri.ttf'
p1525
sg22
g23
sbag7
(g8
g9
NtRp1526
(dp1527
g12
g74
sg14
S'Latin Modern Roman Dunhill'
p1528
sg16
I500
sg17
g18
sg19
g18
sg20
S'/Library/Fonts/Latin Modern/lmromandunh10-oblique.otf'
p1529
sg22
g23
sbag7
(g8
g9
NtRp1530
(dp1531
g12
g13
sg14
S'Meiryo'
p1532
sg16
I700
sg17
g18
sg19
g18
sg20
S'/Library/Fonts/Microsoft/Meiryo Bold Italic.ttf'
p1533
sg22
g23
sbag7
(g8
g9
NtRp1534
(dp1535
g12
g18
sg14
S'Kozuka Gothic Pro'
p1536
sg16
I700
sg17
g18
sg19
g18
sg20
S'/Library/Fonts/KozGoPro-Bold.otf'
p1537
sg22
g23
sbag7
(g8
g9
NtRp1538
(dp1539
g12
g13
sg14
S'Candara'
p1540
sg16
I400
sg17
g18
sg19
g18
sg20
S'/Library/Fonts/Microsoft/Candara Italic.ttf'
p1541
sg22
g23
sbag7
(g8
g9
NtRp1542
(dp1543
g12
g18
sg14
S'Kozuka Gothic Pro'
p1544
sg16
I400
sg17
g18
sg19
g18
sg20
S'/Library/Fonts/KozGoPro-Medium.otf'
p1545
sg22
g23
sbag7
(g8
g9
NtRp1546
(dp1547
g12
g74
sg14
S'Latin Modern Sans Demi Cond'
p1548
sg16
I600
sg17
g192
sg19
g18
sg20
S'/Library/Fonts/Latin Modern/lmsansdemicond10-oblique.otf'
p1549
sg22
g23
sbag7
(g8
g9
NtRp1550
(dp1551
g12
g18
sg14
S'Arial Unicode MS'
p1552
sg16
I400
sg17
g18
sg19
g18
sg20
S'/Library/Fonts/Arial Unicode.ttf'
p1553
sg22
g23
sbag7
(g8
g9
NtRp1554
(dp1555
g12
g18
sg14
S'Adobe Heiti Std'
p1556
sg16
I400
sg17
g18
sg19
g18
sg20
S'/Library/Fonts/AdobeHeitiStd-Regular.otf'
p1557
sg22
g23
sbag7
(g8
g9
NtRp1558
(dp1559
g12
g13
sg14
S'TeX Gyre Cursor'
p1560
sg16
I400
sg17
g18
sg19
g18
sg20
S'/Library/Fonts/TeX Gyre/texgyrecursor-italic.otf'
p1561
sg22
g23
sbag7
(g8
g9
NtRp1562
(dp1563
g12
g18
sg14
S'Latin Modern Roman Slanted'
p1564
sg16
I700
sg17
g18
sg19
g18
sg20
S'/Library/Fonts/Latin Modern/lmromanslant10-bold.otf'
p1565
sg22
g23
sbag7
(g8
g9
NtRp1566
(dp1567
g12
g18
sg14
S'Devanagari MT'
p1568
sg16
I700
sg17
g18
sg19
g18
sg20
S'/Library/Fonts/DevanagariMTBold.ttf'
p1569
sg22
g23
sbag7
(g8
g9
NtRp1570
(dp1571
g12
g74
sg14
S'Latin Modern Mono Light Cond'
p1572
sg16
I200
sg17
g192
sg19
g18
sg20
S'/Library/Fonts/Latin Modern/lmmonoltcond10-oblique.otf'
p1573
sg22
g23
sbag7
(g8
g9
NtRp1574
(dp1575
g12
g18
sg14
S'Kozuka Mincho Pr6N'
p1576
sg16
I400
sg17
g18
sg19
g18
sg20
S'/Library/Fonts/KozMinPr6N-Regular.otf'
p1577
sg22
g23
sbag7
(g8
g9
NtRp1578
(dp1579
g12
g13
sg14
S'TeX Gyre Termes'
p1580
sg16
I700
sg17
g18
sg19
g18
sg20
S'/Library/Fonts/TeX Gyre/texgyretermes-bolditalic.otf'
p1581
sg22
g23
sbag7
(g8
g9
NtRp1582
(dp1583
g12
g18
sg14
S'TeX Gyre Adventor'
p1584
sg16
I700
sg17
g18
sg19
g18
sg20
S'/Library/Fonts/TeX Gyre/texgyreadventor-bold.otf'
p1585
sg22
g23
sbag7
(g8
g9
NtRp1586
(dp1587
g12
g18
sg14
S'Candara'
p1588
sg16
I400
sg17
g18
sg19
g18
sg20
S'/Library/Fonts/Microsoft/Candara.ttf'
p1589
sg22
g23
sbag7
(g8
g9
NtRp1590
(dp1591
g12
g18
sg14
S'Thonburi'
p1592
sg16
I400
sg17
g18
sg19
g18
sg20
S'/System/Library/Fonts/Thonburi.ttf'
p1593
sg22
g23
sbag7
(g8
g9
NtRp1594
(dp1595
g12
g18
sg14
S'Chaparral Pro'
p1596
sg16
I700
sg17
g18
sg19
g18
sg20
S'/Library/Fonts/ChaparralPro-Bold.otf'
p1597
sg22
g23
sbag7
(g8
g9
NtRp1598
(dp1599
g12
g13
sg14
S'TeX Gyre Heros'
p1600
sg16
I400
sg17
g18
sg19
g18
sg20
S'/Library/Fonts/TeX Gyre/texgyreheros-italic.otf'
p1601
sg22
g23
sbag7
(g8
g9
NtRp1602
(dp1603
g12
g18
sg14
S'Latin Modern Roman Slanted'
p1604
sg16
I400
sg17
g18
sg19
g18
sg20
S'/Library/Fonts/Latin Modern/lmromanslant17-regular.otf'
p1605
sg22
g23
sbag7
(g8
g9
NtRp1606
(dp1607
g12
g18
sg14
S'Courier New'
p1608
sg16
I400
sg17
g18
sg19
g18
sg20
S'/Library/Fonts/Courier New.ttf'
p1609
sg22
g23
sbag7
(g8
g9
NtRp1610
(dp1611
g12
g13
sg14
S'Arial Narrow'
p1612
sg16
I700
sg17
g192
sg19
g18
sg20
S'/Library/Fonts/Arial Narrow Bold Italic.ttf'
p1613
sg22
g23
sbag7
(g8
g9
NtRp1614
(dp1615
g12
g18
sg14
S'Zapfino'
p1616
sg16
I400
sg17
g18
sg19
g18
sg20
S'/Library/Fonts/Zapfino.ttf'
p1617
sg22
g23
sbag7
(g8
g9
NtRp1618
(dp1619
g12
g18
sg14
S'Krungthep'
p1620
sg16
I400
sg17
g18
sg19
g18
sg20
S'/Library/Fonts/Krungthep.ttf'
p1621
sg22
g23
sbag7
(g8
g9
NtRp1622
(dp1623
g12
g18
sg14
S'LiHei Pro'
p1624
sg16
I400
sg17
g18
sg19
g18
sg20
S'/System/Library/Fonts/\xe5\x84\xb7\xe9\xbb\x91 Pro.ttf'
p1625
sg22
g23
sbag7
(g8
g9
NtRp1626
(dp1627
g12
g13
sg14
S'Cooper Std'
p1628
sg16
I900
sg17
g18
sg19
g18
sg20
S'/Library/Fonts/CooperBlackStd-Italic.otf'
p1629
sg22
g23
sbag7
(g8
g9
NtRp1630
(dp1631
g12
g18
sg14
S'Minion Pro'
p1632
sg16
I700
sg17
g192
sg19
g18
sg20
S'/Library/Fonts/MinionPro-BoldCn.otf'
p1633
sg22
g23
sbag7
(g8
g9
NtRp1634
(dp1635
g12
g18
sg14
S'Hiragino Kaku Gothic ProN'
p1636
sg16
I400
sg17
g18
sg19
g18
sg20
S'/System/Library/Fonts/\xe3\x83\x92\xe3\x83\xa9\xe3\x82\xad\xe3\x82\x99\xe3\x83\x8e\xe8\xa7\x92\xe3\x82\xb3\xe3\x82\x99 ProN W3.otf'
p1637
sg22
g23
sbag7
(g8
g9
NtRp1638
(dp1639
g12
g18
sg14
S'Apple Braille'
p1640
sg16
I400
sg17
g18
sg19
g18
sg20
S'/System/Library/Fonts/Apple Braille Outline 8 Dot.ttf'
p1641
sg22
g23
sbag7
(g8
g9
NtRp1642
(dp1643
g12
g18
sg14
S'Kozuka Mincho Pro'
p1644
sg16
I400
sg17
g18
sg19
g18
sg20
S'/Library/Fonts/KozMinPro-Light.otf'
p1645
sg22
g23
sbag7
(g8
g9
NtRp1646
(dp1647
g12
g18
sg14
S'Latin Modern Roman'
p1648
sg16
I700
sg17
g18
sg19
g18
sg20
S'/Library/Fonts/Latin Modern/lmroman12-bold.otf'
p1649
sg22
g23
sbag7
(g8
g9
NtRp1650
(dp1651
g12
g18
sg14
S'TeX Gyre Cursor'
p1652
sg16
I400
sg17
g18
sg19
g18
sg20
S'/Library/Fonts/TeX Gyre/texgyrecursor-regular.otf'
p1653
sg22
g23
sbag7
(g8
g9
NtRp1654
(dp1655
g12
g18
sg14
S'Times New Roman'
p1656
sg16
I700
sg17
g18
sg19
g18
sg20
S'/Library/Fonts/Times New Roman Bold.ttf'
p1657
sg22
g23
sbag7
(g8
g9
NtRp1658
(dp1659
g12
g18
sg14
S'Liberation Mono'
p1660
sg16
I700
sg17
g18
sg19
g18
sg20
S'/Users/ehowell/.fonts/LiberationMono-Bold.ttf'
p1661
sg22
g23
sbag7
(g8
g9
NtRp1662
(dp1663
g12
g13
sg14
S'Corbel'
p1664
sg16
I400
sg17
g18
sg19
g18
sg20
S'/Library/Fonts/Microsoft/Corbel Italic.ttf'
p1665
sg22
g23
sbag7
(g8
g9
NtRp1666
(dp1667
g12
g18
sg14
S'TeX Gyre Termes'
p1668
sg16
I400
sg17
g18
sg19
g18
sg20
S'/Library/Fonts/TeX Gyre/texgyretermes-regular.otf'
p1669
sg22
g23
sbag7
(g8
g9
NtRp1670
(dp1671
g12
g13
sg14
S'Adobe Garamond Pro'
p1672
sg16
I400
sg17
g18
sg19
g18
sg20
S'/Library/Fonts/AGaramondPro-Italic.otf'
p1673
sg22
g23
sbag7
(g8
g9
NtRp1674
(dp1675
g12
g18
sg14
S'Hiragino Kaku Gothic StdN'
p1676
sg16
I700
sg17
g18
sg19
g18
sg20
S'/Library/Fonts/\xe3\x83\x92\xe3\x83\xa9\xe3\x82\xad\xe3\x82\x99\xe3\x83\x8e\xe8\xa7\x92\xe3\x82\xb3\xe3\x82\x99 StdN W8.otf'
p1677
sg22
g23
sbag7
(g8
g9
NtRp1678
(dp1679
g12
g18
sg14
S'MS Gothic'
p1680
sg16
I400
sg17
g18
sg19
g18
sg20
S'/Library/Fonts/Microsoft/MS Gothic.ttf'
p1681
sg22
g23
sbag7
(g8
g9
NtRp1682
(dp1683
g12
g18
sg14
S'MS PMincho'
p1684
sg16
I400
sg17
g18
sg19
g18
sg20
S'/Library/Fonts/Microsoft/MS PMincho.ttf'
p1685
sg22
g23
sbag7
(g8
g9
NtRp1686
(dp1687
g12
g18
sg14
S'MS Reference Sans Serif'
p1688
sg16
I400
sg17
g18
sg19
g18
sg20
S'/Library/Fonts/Microsoft/MS Reference Sans Serif.ttf'
p1689
sg22
g23
sbag7
(g8
g9
NtRp1690
(dp1691
g12
g18
sg14
S'Hiragino Mincho Pro'
p1692
sg16
I400
sg17
g18
sg19
g18
sg20
S'/Library/Fonts/\xe3\x83\x92\xe3\x83\xa9\xe3\x82\xad\xe3\x82\x99\xe3\x83\x8e\xe6\x98\x8e\xe6\x9c\x9d Pro W3.otf'
p1693
sg22
g23
sbag7
(g8
g9
NtRp1694
(dp1695
g12
g18
sg14
S'Corbel'
p1696
sg16
I400
sg17
g18
sg19
g18
sg20
S'/Library/Fonts/Microsoft/Corbel.ttf'
p1697
sg22
g23
sbag7
(g8
g9
NtRp1698
(dp1699
g12
g18
sg14
S'Adobe Caslon Pro'
p1700
sg16
I700
sg17
g18
sg19
g18
sg20
S'/Library/Fonts/ACaslonPro-Semibold.otf'
p1701
sg22
g23
sbag7
(g8
g9
NtRp1702
(dp1703
g12
g18
sg14
S'Kozuka Mincho Pro'
p1704
sg16
I400
sg17
g18
sg19
g18
sg20
S'/Library/Fonts/KozMinPro-Medium.otf'
p1705
sg22
g23
sbag7
(g8
g9
NtRp1706
(dp1707
g12
g18
sg14
S'TeX Gyre Cursor'
p1708
sg16
I700
sg17
g18
sg19
g18
sg20
S'/Library/Fonts/TeX Gyre/texgyrecursor-bold.otf'
p1709
sg22
g23
sbag7
(g8
g9
NtRp1710
(dp1711
g12
g18
sg14
S'Latin Modern Roman'
p1712
sg16
I400
sg17
g18
sg19
g18
sg20
S'/Library/Fonts/Latin Modern/lmroman9-regular.otf'
p1713
sg22
g23
sbag7
(g8
g9
NtRp1714
(dp1715
g12
g18
sg14
S'Latin Modern Roman'
p1716
sg16
I400
sg17
g18
sg19
g18
sg20
S'/Library/Fonts/Latin Modern/lmroman8-regular.otf'
p1717
sg22
g23
sbag7
(g8
g9
NtRp1718
(dp1719
g12
g18
sg14
S'SimSun'
p1720
sg16
I400
sg17
g18
sg19
g18
sg20
S'/Library/Fonts/Microsoft/SimSun.ttf'
p1721
sg22
g23
sbag7
(g8
g9
NtRp1722
(dp1723
g12
g18
sg14
S'Apple Braille'
p1724
sg16
I400
sg17
g18
sg19
g18
sg20
S'/System/Library/Fonts/Apple Braille Pinpoint 8 Dot.ttf'
p1725
sg22
g23
sbag7
(g8
g9
NtRp1726
(dp1727
g12
g13
sg14
S'Georgia'
p1728
sg16
I400
sg17
g18
sg19
g18
sg20
S'/Library/Fonts/Georgia Italic.ttf'
p1729
sg22
g23
sbag7
(g8
g9
NtRp1730
(dp1731
g12
g18
sg14
S'Estrangelo Nisibin Outline'
p1732
sg16
I400
sg17
g18
sg19
g18
sg20
S'/usr/X11R6/lib/X11/fonts/OTF/SyrCOMNisibinOutline.otf'
p1733
sg22
g23
sbag7
(g8
g9
NtRp1734
(dp1735
g12
g18
sg14
S'Apple Braille'
p1736
sg16
I400
sg17
g18
sg19
g18
sg20
S'/System/Library/Fonts/Apple Braille Outline 6 Dot.ttf'
p1737
sg22
g23
sbag7
(g8
g9
NtRp1738
(dp1739
g12
g18
sg14
S'Adobe Hebrew'
p1740
sg16
I700
sg17
g18
sg19
g18
sg20
S'/Library/Fonts/AdobeHebrew-Bold.otf'
p1741
sg22
g23
sbag7
(g8
g9
NtRp1742
(dp1743
g12
g13
sg14
S'Gill Sans MT'
p1744
sg16
I700
sg17
g18
sg19
g18
sg20
S'/Library/Fonts/Microsoft/Gill Sans MT Bold Italic.ttf'
p1745
sg22
g23
sbag7
(g8
g9
NtRp1746
(dp1747
g12
g18
sg14
S'Raanana'
p1748
sg16
I700
sg17
g18
sg19
g18
sg20
S'/Library/Fonts/RaananaBold.ttf'
p1749
sg22
g23
sbag7
(g8
g9
NtRp1750
(dp1751
g12
g18
sg14
S'Euphemia UCAS'
p1752
sg16
I700
sg17
g18
sg19
g18
sg20
S'/Library/Fonts/EuphemiaCASBold.ttf'
p1753
sg22
g23
sbag7
(g8
g9
NtRp1754
(dp1755
g12
g18
sg14
S'Adobe Garamond Pro'
p1756
sg16
I400
sg17
g18
sg19
g18
sg20
S'/Library/Fonts/AGaramondPro-Regular.otf'
p1757
sg22
g23
sbag7
(g8
g9
NtRp1758
(dp1759
g12
g18
sg14
S'Chaparral Pro'
p1760
sg16
I400
sg17
g18
sg19
g18
sg20
S'/Library/Fonts/ChaparralPro-Regular.otf'
p1761
sg22
g23
sbag7
(g8
g9
NtRp1762
(dp1763
g12
g18
sg14
S'LastResort'
p1764
sg16
I400
sg17
g18
sg19
g18
sg20
S'/System/Library/Fonts/LastResort.ttf'
p1765
sg22
g23
sbag7
(g8
g9
NtRp1766
(dp1767
g12
g18
sg14
S'Latin Modern Roman'
p1768
sg16
I400
sg17
g18
sg19
g18
sg20
S'/Library/Fonts/Latin Modern/lmroman12-regular.otf'
p1769
sg22
g23
sbag7
(g8
g9
NtRp1770
(dp1771
g12
g18
sg14
S'Geeza Pro'
p1772
sg16
I700
sg17
g18
sg19
g18
sg20
S'/System/Library/Fonts/Geeza Pro Bold.ttf'
p1773
sg22
g23
sbag7
(g8
g9
NtRp1774
(dp1775
g12
g18
sg14
S'East Syriac Adiabene'
p1776
sg16
I400
sg17
g18
sg19
g18
sg20
S'/usr/X11R6/lib/X11/fonts/OTF/SyrCOMAdiabene.otf'
p1777
sg22
g23
sbag7
(g8
g9
NtRp1778
(dp1779
g12
g18
sg14
S'Estrangelo Quenneshrin'
p1780
sg16
I400
sg17
g18
sg19
g18
sg20
S'/usr/X11R6/lib/X11/fonts/OTF/SyrCOMQenNeshrin.otf'
p1781
sg22
g23
sbag7
(g8
g9
NtRp1782
(dp1783
g12
g13
sg14
S'Constantia'
p1784
sg16
I700
sg17
g18
sg19
g18
sg20
S'/Library/Fonts/Microsoft/Constantia Bold Italic.ttf'
p1785
sg22
g23
sbag7
(g8
g9
NtRp1786
(dp1787
g12
g18
sg14
S'Franklin Gothic Book'
p1788
sg16
I400
sg17
g18
sg19
g18
sg20
S'/Library/Fonts/Microsoft/Franklin Gothic Book.ttf'
p1789
sg22
g23
sbag7
(g8
g9
NtRp1790
(dp1791
g12
g18
sg14
S'Kozuka Mincho Pr6N'
p1792
sg16
I400
sg17
g18
sg19
g18
sg20
S'/Library/Fonts/KozMinPr6N-ExtraLight.otf'
p1793
sg22
g23
sbag7
(g8
g9
NtRp1794
(dp1795
g12
g18
sg14
S'Trebuchet MS'
p1796
sg16
I400
sg17
g18
sg19
g18
sg20
S'/Library/Fonts/Trebuchet MS.ttf'
p1797
sg22
g23
sbag7
(g8
g9
NtRp1798
(dp1799
g12
g18
sg14
S'Latin Modern Roman Slanted'
p1800
sg16
I400
sg17
g18
sg19
g18
sg20
S'/Library/Fonts/Latin Modern/lmromanslant9-regular.otf'
p1801
sg22
g23
sbag7
(g8
g9
NtRp1802
(dp1803
g12
g18
sg14
S'Courier New'
p1804
sg16
I700
sg17
g18
sg19
g18
sg20
S'/Library/Fonts/Courier New Bold.ttf'
p1805
sg22
g23
sbag7
(g8
g9
NtRp1806
(dp1807
g12
g13
sg14
S'Latin Modern Mono'
p1808
sg16
I400
sg17
g18
sg19
g18
sg20
S'/Library/Fonts/Latin Modern/lmmono10-italic.otf'
p1809
sg22
g23
sbag7
(g8
g9
NtRp1810
(dp1811
g12
g18
sg14
S'Perpetua'
p1812
sg16
I700
sg17
g18
sg19
g18
sg20
S'/Library/Fonts/Microsoft/Perpetua Bold.ttf'
p1813
sg22
g23
sbag7
(g8
g9
NtRp1814
(dp1815
g12
g18
sg14
S'Adobe Fangsong Std'
p1816
sg16
I400
sg17
g18
sg19
g18
sg20
S'/Library/Fonts/AdobeFangsongStd-Regular.otf'
p1817
sg22
g23
sbag7
(g8
g9
NtRp1818
(dp1819
g12
g18
sg14
S'Herculanum'
p1820
sg16
I400
sg17
g18
sg19
g18
sg20
S'/Library/Fonts/Herculanum.ttf'
p1821
sg22
g23
sbag7
(g8
g9
NtRp1822
(dp1823
g12
g13
sg14
S'TeX Gyre Adventor'
p1824
sg16
I700
sg17
g18
sg19
g18
sg20
S'/Library/Fonts/TeX Gyre/texgyreadventor-bolditalic.otf'
p1825
sg22
g23
sbag7
(g8
g9
NtRp1826
(dp1827
g12
g18
sg14
S'Latin Modern Sans Quotation'
p1828
sg16
I400
sg17
g18
sg19
g18
sg20
S'/Library/Fonts/Latin Modern/lmsansquot8-regular.otf'
p1829
sg22
g23
sbag7
(g8
g9
NtRp1830
(dp1831
g12
g13
sg14
S'Minion Pro'
p1832
sg16
I700
sg17
g18
sg19
g18
sg20
S'/Library/Fonts/MinionPro-SemiboldIt.otf'
p1833
sg22
g23
sbag7
(g8
g9
NtRp1834
(dp1835
g12
g18
sg14
S'Wingdings 2'
p1836
sg16
I400
sg17
g18
sg19
g18
sg20
S'/Library/Fonts/Wingdings 2.ttf'
p1837
sg22
g23
sbag7
(g8
g9
NtRp1838
(dp1839
g12
g18
sg14
S'Lithos Pro'
p1840
sg16
I900
sg17
g18
sg19
g18
sg20
S'/Library/Fonts/LithosPro-Black.otf'
p1841
sg22
g23
sbag7
(g8
g9
NtRp1842
(dp1843
g12
g18
sg14
S'Tahoma'
p1844
sg16
I400
sg17
g18
sg19
g18
sg20
S'/Library/Fonts/Tahoma.ttf'
p1845
sg22
g23
sbag7
(g8
g9
NtRp1846
(dp1847
g12
g18
sg14
S'Serto Jerusalem Outline'
p1848
sg16
I400
sg17
g18
sg19
g18
sg20
S'/usr/X11R6/lib/X11/fonts/OTF/SyrCOMJerusalemOutline.otf'
p1849
sg22
g23
sbag7
(g8
g9
NtRp1850
(dp1851
g12
g18
sg14
S'Gill Sans MT'
p1852
sg16
I700
sg17
g18
sg19
g18
sg20
S'/Library/Fonts/Microsoft/Gill Sans MT Bold.ttf'
p1853
sg22
g23
sbag7
(g8
g9
NtRp1854
(dp1855
g12
g18
sg14
S'Hiragino Maru Gothic ProN'
p1856
sg16
I400
sg17
g18
sg19
g18
sg20
S'/Library/Fonts/\xe3\x83\x92\xe3\x83\xa9\xe3\x82\xad\xe3\x82\x99\xe3\x83\x8e\xe4\xb8\xb8\xe3\x82\xb3\xe3\x82\x99 ProN W4.otf'
p1857
sg22
g23
sbag7
(g8
g9
NtRp1858
(dp1859
g12
g13
sg14
S'TeX Gyre Cursor'
p1860
sg16
I700
sg17
g18
sg19
g18
sg20
S'/Library/Fonts/TeX Gyre/texgyrecursor-bolditalic.otf'
p1861
sg22
g23
sbag7
(g8
g9
NtRp1862
(dp1863
g12
g13
sg14
S'Orator Std'
p1864
sg16
I400
sg17
g18
sg19
g18
sg20
S'/Library/Fonts/OratorStd-Slanted.otf'
p1865
sg22
g23
sbag7
(g8
g9
NtRp1866
(dp1867
g12
g18
sg14
S'Luxi Mono'
p1868
sg16
I400
sg17
g18
sg19
g18
sg20
S'/usr/X11R6/lib/X11/fonts/TTF/luximr.ttf'
p1869
sg22
g23
sbag7
(g8
g9
NtRp1870
(dp1871
g12
g18
sg14
S'Baghdad'
p1872
sg16
I400
sg17
g18
sg19
g18
sg20
S'/Library/Fonts/Baghdad.ttf'
p1873
sg22
g23
sbag7
(g8
g9
NtRp1874
(dp1875
g12
g18
sg14
S'Latin Modern Sans'
p1876
sg16
I400
sg17
g18
sg19
g18
sg20
S'/Library/Fonts/Latin Modern/lmsans9-regular.otf'
p1877
sg22
g23
sbag7
(g8
g9
NtRp1878
(dp1879
g12
g18
sg14
S'TeX Gyre Heros Cn'
p1880
sg16
I400
sg17
g18
sg19
g18
sg20
S'/Library/Fonts/TeX Gyre/texgyreheroscn-regular.otf'
p1881
sg22
g23
sbag7
(g8
g9
NtRp1882
(dp1883
g12
g18
sg14
S'Estrangelo Antioch'
p1884
sg16
I400
sg17
g18
sg19
g18
sg20
S'/usr/X11R6/lib/X11/fonts/OTF/SyrCOMAntioch.otf'
p1885
sg22
g23
sbag7
(g8
g9
NtRp1886
(dp1887
g12
g18
sg14
S'Luxi Mono'
p1888
sg16
I700
sg17
g18
sg19
g18
sg20
S'/usr/X11R6/lib/X11/fonts/TTF/luximb.ttf'
p1889
sg22
g23
sbag7
(g8
g9
NtRp1890
(dp1891
g12
g18
sg14
S'Latin Modern Roman'
p1892
sg16
I700
sg17
g18
sg19
g18
sg20
S'/Library/Fonts/Latin Modern/lmroman7-bold.otf'
p1893
sg22
g23
sbag7
(g8
g9
NtRp1894
(dp1895
g12
g13
sg14
S'Meiryo'
p1896
sg16
I400
sg17
g18
sg19
g18
sg20
S'/Library/Fonts/Microsoft/Meiryo Italic.ttf'
p1897
sg22
g23
sbag7
(g8
g9
NtRp1898
(dp1899
g12
g18
sg14
S'Kozuka Mincho Pro'
p1900
sg16
I400
sg17
g18
sg19
g18
sg20
S'/Library/Fonts/KozMinPro-ExtraLight.otf'
p1901
sg22
g23
sbag7
(g8
g9
NtRp1902
(dp1903
g12
g74
sg14
S'Latin Modern Roman Caps'
p1904
sg16
I500
sg17
g18
sg19
g18
sg20
S'/Library/Fonts/Latin Modern/lmromancaps10-oblique.otf'
p1905
sg22
g23
sbag7
(g8
g9
NtRp1906
(dp1907
g12
g74
sg14
S'Helvetica'
p1908
sg16
I200
sg17
g18
sg19
g18
sg20
S'/System/Library/Fonts/HelveticaLightItalic.ttf'
p1909
sg22
g23
sbag7
(g8
g9
NtRp1910
(dp1911
g12
g18
sg14
S'Latin Modern Sans'
p1912
sg16
I400
sg17
g18
sg19
g18
sg20
S'/Library/Fonts/Latin Modern/lmsans8-regular.otf'
p1913
sg22
g23
sbag7
(g8
g9
NtRp1914
(dp1915
g12
g18
sg14
S'Apple Symbols'
p1916
sg16
I400
sg17
g18
sg19
g18
sg20
S'/System/Library/Fonts/Apple Symbols.ttf'
p1917
sg22
g23
sbag7
(g8
g9
NtRp1918
(dp1919
g12
g18
sg14
S'Hobo Std'
p1920
sg16
I500
sg17
g18
sg19
g18
sg20
S'/Library/Fonts/HoboStd.otf'
p1921
sg22
g23
sbag7
(g8
g9
NtRp1922
(dp1923
g12
g18
sg14
S'Sathu'
p1924
sg16
I400
sg17
g18
sg19
g18
sg20
S'/Library/Fonts/Sathu.ttf'
p1925
sg22
g23
sbag7
(g8
g9
NtRp1926
(dp1927
g12
g18
sg14
S'Apple LiGothic'
p1928
sg16
I500
sg17
g18
sg19
g18
sg20
S'/Library/Fonts/Apple LiGothic Medium.ttf'
p1929
sg22
g23
sbag7
(g8
g9
NtRp1930
(dp1931
g12
g18
sg14
S'Calibri'
p1932
sg16
I400
sg17
g18
sg19
g18
sg20
S'/Library/Fonts/Microsoft/Calibri.ttf'
p1933
sg22
g23
sbag7
(g8
g9
NtRp1934
(dp1935
g12
g18
sg14
S'Devanagari MT'
p1936
sg16
I400
sg17
g18
sg19
g18
sg20
S'/Library/Fonts/DevanagariMT.ttf'
p1937
sg22
g23
sbag7
(g8
g9
NtRp1938
(dp1939
g12
g18
sg14
S'Osaka'
p1940
sg16
I400
sg17
g18
sg19
g18
sg20
S'/Library/Fonts/OsakaMono.ttf'
p1941
sg22
g23
sbag7
(g8
g9
NtRp1942
(dp1943
g12
g18
sg14
S'Latin Modern Mono'
p1944
sg16
I400
sg17
g18
sg19
g18
sg20
S'/Library/Fonts/Latin Modern/lmmono9-regular.otf'
p1945
sg22
g23
sbag7
(g8
g9
NtRp1946
(dp1947
g12
g18
sg14
S'Liberation Sans'
p1948
sg16
I700
sg17
g18
sg19
g18
sg20
S'/Users/ehowell/.fonts/LiberationSans-Bold.ttf'
p1949
sg22
g23
sbag7
(g8
g9
NtRp1950
(dp1951
g12
g18
sg14
S'Latin Modern Mono Light Cond'
p1952
sg16
I400
sg17
g192
sg19
g18
sg20
S'/Library/Fonts/Latin Modern/lmmonoltcond10-regular.otf'
p1953
sg22
g23
sbag7
(g8
g9
NtRp1954
(dp1955
g12
g18
sg14
S'Kozuka Gothic Pro'
p1956
sg16
I400
sg17
g18
sg19
g18
sg20
S'/Library/Fonts/KozGoPro-Regular.otf'
p1957
sg22
g23
sbag7
(g8
g9
NtRp1958
(dp1959
g12
g18
sg14
S'Kozuka Mincho Pr6N'
p1960
sg16
I400
sg17
g18
sg19
g18
sg20
S'/Library/Fonts/KozMinPr6N-Medium.otf'
p1961
sg22
g23
sbag7
(g8
g9
NtRp1962
(dp1963
g12
g18
sg14
S'Comic Sans MS'
p1964
sg16
I400
sg17
g18
sg19
g18
sg20
S'/Library/Fonts/Comic Sans MS.ttf'
p1965
sg22
g23
sbag7
(g8
g9
NtRp1966
(dp1967
g12
g18
sg14
S'Gujarati MT'
p1968
sg16
I400
sg17
g18
sg19
g18
sg20
S'/Library/Fonts/GujaratiMT.ttf'
p1969
sg22
g23
sbag7
(g8
g9
NtRp1970
(dp1971
g12
g18
sg14
S'TeX Gyre Heros'
p1972
sg16
I700
sg17
g18
sg19
g18
sg20
S'/Library/Fonts/TeX Gyre/texgyreheros-bold.otf'
p1973
sg22
g23
sbasS'defaultFamily'
p1974
(dp1975
S'afm'
p1976
S'Helvetica'
p1977
sS'ttf'
p1978
S'Bitstream Vera Sans'
p1979
ssS'ttffiles'
p1980
(lp1981
S'/opt/local/Library/Frameworks/Python.framework/Versions/2.7/lib/python2.7/site-packages/matplotlib/mpl-data/fonts/ttf/STIXGeneralBolIta.ttf'
p1982
aS'/opt/local/Library/Frameworks/Python.framework/Versions/2.7/lib/python2.7/site-packages/matplotlib/mpl-data/fonts/ttf/VeraBd.ttf'
p1983
aS'/opt/local/Library/Frameworks/Python.framework/Versions/2.7/lib/python2.7/site-packages/matplotlib/mpl-data/fonts/ttf/STIXNonUniBol.ttf'
p1984
aS'/opt/local/Library/Frameworks/Python.framework/Versions/2.7/lib/python2.7/site-packages/matplotlib/mpl-data/fonts/ttf/STIXGeneral.ttf'
p1985
aS'/opt/local/Library/Frameworks/Python.framework/Versions/2.7/lib/python2.7/site-packages/matplotlib/mpl-data/fonts/ttf/cmsy10.ttf'
p1986
aS'/opt/local/Library/Frameworks/Python.framework/Versions/2.7/lib/python2.7/site-packages/matplotlib/mpl-data/fonts/ttf/STIXSizTwoSymBol.ttf'
p1987
aS'/opt/local/Library/Frameworks/Python.framework/Versions/2.7/lib/python2.7/site-packages/matplotlib/mpl-data/fonts/ttf/cmss10.ttf'
p1988
aS'/opt/local/Library/Frameworks/Python.framework/Versions/2.7/lib/python2.7/site-packages/matplotlib/mpl-data/fonts/ttf/cmtt10.ttf'
p1989
aS'/opt/local/Library/Frameworks/Python.framework/Versions/2.7/lib/python2.7/site-packages/matplotlib/mpl-data/fonts/ttf/STIXSizThreeSymBol.ttf'
p1990
aS'/opt/local/Library/Frameworks/Python.framework/Versions/2.7/lib/python2.7/site-packages/matplotlib/mpl-data/fonts/ttf/STIXSizFourSymReg.ttf'
p1991
aS'/opt/local/Library/Frameworks/Python.framework/Versions/2.7/lib/python2.7/site-packages/matplotlib/mpl-data/fonts/ttf/STIXNonUniBolIta.ttf'
p1992
aS'/opt/local/Library/Frameworks/Python.framework/Versions/2.7/lib/python2.7/site-packages/matplotlib/mpl-data/fonts/ttf/STIXSizOneSymBol.ttf'
p1993
aS'/opt/local/Library/Frameworks/Python.framework/Versions/2.7/lib/python2.7/site-packages/matplotlib/mpl-data/fonts/ttf/STIXGeneralItalic.ttf'
p1994
aS'/opt/local/Library/Frameworks/Python.framework/Versions/2.7/lib/python2.7/site-packages/matplotlib/mpl-data/fonts/ttf/VeraBI.ttf'
p1995
aS'/opt/local/Library/Frameworks/Python.framework/Versions/2.7/lib/python2.7/site-packages/matplotlib/mpl-data/fonts/ttf/cmex10.ttf'
p1996
aS'/opt/local/Library/Frameworks/Python.framework/Versions/2.7/lib/python2.7/site-packages/matplotlib/mpl-data/fonts/ttf/STIXSizFourSymBol.ttf'
p1997
aS'/opt/local/Library/Frameworks/Python.framework/Versions/2.7/lib/python2.7/site-packages/matplotlib/mpl-data/fonts/ttf/VeraMoBI.ttf'
p1998
aS'/opt/local/Library/Frameworks/Python.framework/Versions/2.7/lib/python2.7/site-packages/matplotlib/mpl-data/fonts/ttf/STIXSizOneSymReg.ttf'
p1999
aS'/opt/local/Library/Frameworks/Python.framework/Versions/2.7/lib/python2.7/site-packages/matplotlib/mpl-data/fonts/ttf/STIXNonUniIta.ttf'
p2000
aS'/opt/local/Library/Frameworks/Python.framework/Versions/2.7/lib/python2.7/site-packages/matplotlib/mpl-data/fonts/ttf/VeraMoIt.ttf'
p2001
aS'/opt/local/Library/Frameworks/Python.framework/Versions/2.7/lib/python2.7/site-packages/matplotlib/mpl-data/fonts/ttf/VeraMono.ttf'
p2002
aS'/opt/local/Library/Frameworks/Python.framework/Versions/2.7/lib/python2.7/site-packages/matplotlib/mpl-data/fonts/ttf/STIXNonUni.ttf'
p2003
aS'/opt/local/Library/Frameworks/Python.framework/Versions/2.7/lib/python2.7/site-packages/matplotlib/mpl-data/fonts/ttf/Vera.ttf'
p2004
aS'/opt/local/Library/Frameworks/Python.framework/Versions/2.7/lib/python2.7/site-packages/matplotlib/mpl-data/fonts/ttf/STIXSizTwoSymReg.ttf'
p2005
aS'/opt/local/Library/Frameworks/Python.framework/Versions/2.7/lib/python2.7/site-packages/matplotlib/mpl-data/fonts/ttf/VeraSe.ttf'
p2006
aS'/opt/local/Library/Frameworks/Python.framework/Versions/2.7/lib/python2.7/site-packages/matplotlib/mpl-data/fonts/ttf/cmmi10.ttf'
p2007
aS'/opt/local/Library/Frameworks/Python.framework/Versions/2.7/lib/python2.7/site-packages/matplotlib/mpl-data/fonts/ttf/STIXGeneralBol.ttf'
p2008
aS'/opt/local/Library/Frameworks/Python.framework/Versions/2.7/lib/python2.7/site-packages/matplotlib/mpl-data/fonts/ttf/VeraIt.ttf'
p2009
aS'/opt/local/Library/Frameworks/Python.framework/Versions/2.7/lib/python2.7/site-packages/matplotlib/mpl-data/fonts/ttf/STIXSizThreeSymReg.ttf'
p2010
aS'/opt/local/Library/Frameworks/Python.framework/Versions/2.7/lib/python2.7/site-packages/matplotlib/mpl-data/fonts/ttf/VeraSeBd.ttf'
p2011
aS'/opt/local/Library/Frameworks/Python.framework/Versions/2.7/lib/python2.7/site-packages/matplotlib/mpl-data/fonts/ttf/cmr10.ttf'
p2012
aS'/opt/local/Library/Frameworks/Python.framework/Versions/2.7/lib/python2.7/site-packages/matplotlib/mpl-data/fonts/ttf/cmb10.ttf'
p2013
aS'/opt/local/Library/Frameworks/Python.framework/Versions/2.7/lib/python2.7/site-packages/matplotlib/mpl-data/fonts/ttf/VeraMoBd.ttf'
p2014
aS'/opt/local/Library/Frameworks/Python.framework/Versions/2.7/lib/python2.7/site-packages/matplotlib/mpl-data/fonts/ttf/STIXSizFiveSymReg.ttf'
p2015
aS'/Library/Fonts/Trebuchet MS Italic.ttf'
p2016
aS'/Library/Fonts/MshtakanRegular.ttf'
p2017
aS'/Library/Fonts/Osaka.ttf'
p2018
aS'/Library/Fonts/PoplarStd.otf'
p2019
aS'/Library/Fonts/KozGoPr6N-ExtraLight.otf'
p2020
aS'/Library/Fonts/Microsoft/Gill Sans MT Italic.ttf'
p2021
aS'/Library/Fonts/Times New Roman.ttf'
p2022
aS'/Library/Fonts/NISC18030.ttf'
p2023
aS'/Library/Fonts/AppleMyungjo.ttf'
p2024
aS'/Library/Fonts/Latin Modern/lmsans10-bold.otf'
p2025
aS'/Library/Fonts/MyriadPro-CondIt.otf'
p2026
aS'/usr/X11R6/lib/X11/fonts/TTF/Vera.ttf'
p2027
aS'/Library/Fonts/Latin Modern/lmsans12-regular.otf'
p2028
aS'/usr/X11R6/lib/X11/fonts/TTF/VeraMono.ttf'
p2029
aS'/usr/X11R6/lib/X11/fonts/OTF/SyrCOMMardinBold.otf'
p2030
aS'/System/Library/Fonts/Symbol.ttf'
p2031
aS'/Library/Fonts/AlBayan.ttf'
p2032
aS'/Library/Fonts/Microsoft/Candara Bold.ttf'
p2033
aS'/Library/Fonts/Microsoft/Tw Cen MT.ttf'
p2034
aS'/Library/Fonts/Latin Modern/lmromanslant12-regular.otf'
p2035
aS'/Library/Fonts/MyriadPro-It.otf'
p2036
aS'/usr/X11R6/lib/X11/fonts/TTF/luxirb.ttf'
p2037
aS'/Library/Fonts/TeX Gyre/texgyreadventor-regular.otf'
p2038
aS'/Library/Fonts/Microsoft/Corbel Bold.ttf'
p2039
aS'/Library/Fonts/Latin Modern/lmroman7-regular.otf'
p2040
aS'/Library/Fonts/Nadeem.ttf'
p2041
aS'/Library/Fonts/AlBayanBold.ttf'
p2042
aS'/Library/Fonts/KozGoPr6N-Regular.otf'
p2043
aS'/Library/Fonts/Arial Bold Italic.ttf'
p2044
aS'/Library/Fonts/TektonPro-Bold.otf'
p2045
aS'/Library/Fonts/TeX Gyre/texgyrebonum-regular.otf'
p2046
aS'/Library/Fonts/MshtakanBold.ttf'
p2047
aS'/System/Library/Fonts/AppleGothic.ttf'
p2048
aS'/Users/ehowell/.fonts/LiberationSerif-Italic.ttf'
p2049
aS'/Library/Fonts/EuphemiaCASRegular.ttf'
p2050
aS'/Library/Fonts/Latin Modern/lmsans17-oblique.otf'
p2051
aS'/Library/Fonts/LetterGothicStd.otf'
p2052
aS'/Library/Fonts/Latin Modern/lmromandunh10-regular.otf'
p2053
aS'/Library/Fonts/Latin Modern/lmroman8-italic.otf'
p2054
aS'/Library/Fonts/Latin Modern/lmmonoprop10-regular.otf'
p2055
aS'/Library/Fonts/Gurmukhi.ttf'
p2056
aS'/Library/Fonts/Microsoft/Cambria Italic.ttf'
p2057
aS'/Library/Fonts/TektonPro-BoldObl.otf'
p2058
aS'/Library/Fonts/Latin Modern/lmromanslant8-regular.otf'
p2059
aS'/usr/X11R6/lib/X11/fonts/TTF/luxirri.ttf'
p2060
aS'/usr/X11R6/lib/X11/fonts/TTF/VeraSeBd.ttf'
p2061
aS'/Library/Fonts/Latin Modern/lmsansquot8-boldoblique.otf'
p2062
aS'/Library/Fonts/AdobeMyungjoStd-Medium.otf'
p2063
aS'/Library/Fonts/\xe3\x83\x92\xe3\x83\xa9\xe3\x82\xad\xe3\x82\x99\xe3\x83\x8e\xe4\xb8\xb8\xe3\x82\xb3\xe3\x82\x99 Pro W4.otf'
p2064
aS'/Library/Fonts/Microsoft/Perpetua Bold Italic.ttf'
p2065
aS'/Library/Fonts/AdobeGothicStd-Bold.otf'
p2066
aS'/Library/Fonts/NewPeninimMTInclined.ttf'
p2067
aS'/Library/Fonts/MyriadPro-Semibold.otf'
p2068
aS'/Library/Fonts/Microsoft/Franklin Gothic Medium.ttf'
p2069
aS'/Library/Fonts/PCmyoungjo.ttf'
p2070
aS'/Library/Fonts/KozMinPr6N-Bold.otf'
p2071
aS'/Library/Fonts/Verdana Bold Italic.ttf'
p2072
aS'/Library/Fonts/Latin Modern/lmsansquot8-oblique.otf'
p2073
aS'/Library/Fonts/Kokonor.ttf'
p2074
aS'/usr/X11R6/lib/X11/fonts/OTF/SyrCOMEdessa.otf'
p2075
aS'/System/Library/Fonts/Apple Braille.ttf'
p2076
aS'/Library/Fonts/\xe3\x83\x92\xe3\x83\xa9\xe3\x82\xad\xe3\x82\x99\xe3\x83\x8e\xe6\x98\x8e\xe6\x9c\x9d Pro W6.otf'
p2077
aS'/usr/X11R6/lib/X11/fonts/OTF/SyrCOMBatnanBold.otf'
p2078
aS'/Library/Fonts/Kailasa.ttf'
p2079
aS'/Library/Fonts/Latin Modern/lmmonoproplt10-boldoblique.otf'
p2080
aS'/usr/X11R6/lib/X11/fonts/OTF/SyrCOMMalankara.otf'
p2081
aS'/Library/Fonts/Microsoft/MS Mincho.ttf'
p2082
aS'/Library/Fonts/TektonPro-BoldExt.otf'
p2083
aS'/Library/Fonts/ChaparralPro-Italic.otf'
p2084
aS'/Library/Fonts/Comic Sans MS Bold.ttf'
p2085
aS'/Library/Fonts/ACaslonPro-Italic.otf'
p2086
aS'/Library/Fonts/AGaramondPro-BoldItalic.otf'
p2087
aS'/usr/X11R6/lib/X11/fonts/OTF/SyrCOMTurAbdin.otf'
p2088
aS'/Library/Fonts/Webdings.ttf'
p2089
aS'/System/Library/Fonts/Apple Braille Pinpoint 6 Dot.ttf'
p2090
aS'/Users/ehowell/.fonts/LiberationSans-BoldItalic.ttf'
p2091
aS'/Library/Fonts/KozMinPr6N-Heavy.otf'
p2092
aS'/Library/Fonts/KozGoPro-Heavy.otf'
p2093
aS'/Library/Fonts/Microsoft/Franklin Gothic Book Italic.ttf'
p2094
aS'/Library/Fonts/Latin Modern/lmmonoproplt10-bold.otf'
p2095
aS'/usr/X11R6/lib/X11/fonts/OTF/GohaTibebZemen.otf'
p2096
aS'/Library/Fonts/Courier New Italic.ttf'
p2097
aS'/Library/Fonts/Microsoft/Meiryo.ttf'
p2098
aS'/Library/Fonts/MinionPro-MediumIt.otf'
p2099
aS'/Library/Fonts/KozMinPro-Regular.otf'
p2100
aS'/Library/Fonts/Kai.ttf'
p2101
aS'/Library/Fonts/TeX Gyre/texgyrepagella-bold.otf'
p2102
aS'/System/Library/Fonts/\xe5\x8d\x8e\xe6\x96\x87\xe7\xbb\x86\xe9\xbb\x91.ttf'
p2103
aS'/Library/Fonts/Latin Modern/lmmonoproplt10-regular.otf'
p2104
aS'/Library/Fonts/Arial Black.ttf'
p2105
aS'/Library/Fonts/MyriadPro-SemiboldIt.otf'
p2106
aS'/Library/Fonts/Latin Modern/lmroman5-regular.otf'
p2107
aS'/Library/Fonts/Wingdings 3.ttf'
p2108
aS'/Library/Fonts/MyriadPro-BoldCondIt.otf'
p2109
aS'/Library/Fonts/Latin Modern/lmmonocaps10-oblique.otf'
p2110
aS'/usr/X11R6/lib/X11/fonts/TTF/VeraBd.ttf'
p2111
aS'/Library/Fonts/AdobeKaitiStd-Regular.otf'
p2112
aS'/Users/ehowell/.fonts/LiberationMono-Italic.ttf'
p2113
aS'/Library/Fonts/NuevaStd-Cond.otf'
p2114
aS'/Library/Fonts/ArialHB.ttf'
p2115
aS'/Library/Fonts/Microsoft/Consolas.ttf'
p2116
aS'/Library/Fonts/MyriadWebPro-Bold.ttf'
p2117
aS'/Library/Fonts/Latin Modern/lmroman6-regular.otf'
p2118
aS'/Library/Fonts/CorsivaBold.ttf'
p2119
aS'/Library/Fonts/KozMinPr6N-Light.otf'
p2120
aS'/Library/Fonts/Microsoft/PMingLiU.ttf'
p2121
aS'/Library/Fonts/KozGoPr6N-Medium.otf'
p2122
aS'/Library/Fonts/Microsoft/Marlett.ttf'
p2123
aS'/Library/Fonts/Microsoft/Calibri Bold.ttf'
p2124
aS'/Library/Fonts/TeX Gyre/texgyreheroscn-bold.otf'
p2125
aS'/Library/Fonts/Latin Modern/lmsans10-oblique.otf'
p2126
aS'/Library/Fonts/MinionPro-Medium.otf'
p2127
aS'/Library/Fonts/Wingdings.ttf'
p2128
aS'/Library/Fonts/Impact.ttf'
p2129
aS'/Library/Fonts/TeX Gyre/texgyrebonum-bold.otf'
p2130
aS'/Library/Fonts/Tahoma Bold.ttf'
p2131
aS'/Library/Fonts/Georgia Bold Italic.ttf'
p2132
aS'/Library/Fonts/TektonPro-BoldCond.otf'
p2133
aS'/usr/X11R6/lib/X11/fonts/TTF/VeraMoBd.ttf'
p2134
aS'/Library/Fonts/Latin Modern/lmsans9-oblique.otf'
p2135
aS'/Library/Fonts/Hoefler Text Ornaments.ttf'
p2136
aS'/Library/Fonts/AdobeArabic-Italic.otf'
p2137
aS'/System/Library/Fonts/\xe3\x83\x92\xe3\x83\xa9\xe3\x82\xad\xe3\x82\x99\xe3\x83\x8e\xe6\x98\x8e\xe6\x9c\x9d ProN W6.otf'
p2138
aS'/Library/Fonts/Latin Modern/lmromandemi10-oblique.otf'
p2139
aS'/Library/Fonts/RosewoodStd-Regular.otf'
p2140
aS'/Library/Fonts/Latin Modern/lmmonoprop10-oblique.otf'
p2141
aS'/Library/Fonts/TeX Gyre/texgyreschola-bolditalic.otf'
p2142
aS'/Library/Fonts/AdobeArabic-Bold.otf'
p2143
aS'/Library/Fonts/Pilgiche.ttf'
p2144
aS'/Library/Fonts/Microsoft/Gill Sans MT.ttf'
p2145
aS'/Library/Fonts/Latin Modern/lmsans17-regular.otf'
p2146
aS'/Library/Fonts/Latin Modern/lmsans12-oblique.otf'
p2147
aS'/Users/ehowell/.fonts/LiberationSerif-Bold.ttf'
p2148
aS'/Library/Fonts/Microsoft/Constantia.ttf'
p2149
aS'/Library/Fonts/GujaratiMTBold.ttf'
p2150
aS'/Library/Fonts/Latin Modern/lmroman10-regular.otf'
p2151
aS'/Library/Fonts/LetterGothicStd-BoldSlanted.otf'
p2152
aS'/Library/Fonts/NuevaStd-CondItalic.otf'
p2153
aS'/System/Library/Fonts/ZapfDingbats.ttf'
p2154
aS'/Library/Fonts/Latin Modern/lmmonoslant10-regular.otf'
p2155
aS'/Users/ehowell/.fonts/LiberationSans-Italic.ttf'
p2156
aS'/Library/Fonts/Microsoft/Calibri Bold Italic.ttf'
p2157
aS'/Library/Fonts/Apple LiSung Light.ttf'
p2158
aS'/Library/Fonts/Microsoft/Corbel Bold Italic.ttf'
p2159
aS'/Library/Fonts/AGaramondPro-Bold.otf'
p2160
aS'/Library/Fonts/StencilStd.otf'
p2161
aS'/Library/Fonts/MyriadPro-Regular.otf'
p2162
aS'/Library/Fonts/Latin Modern/lmmonoproplt10-oblique.otf'
p2163
aS'/Library/Fonts/MyriadPro-Cond.otf'
p2164
aS'/System/Library/Fonts/HelveticaLight.ttf'
p2165
aS'/Library/Fonts/Trebuchet MS Bold Italic.ttf'
p2166
aS'/Library/Fonts/AdobeMingStd-Light.otf'
p2167
aS'/Library/Fonts/TeX Gyre/texgyreheroscn-bolditalic.otf'
p2168
aS'/Library/Fonts/Latin Modern/lmmonolt10-oblique.otf'
p2169
aS'/Library/Fonts/Latin Modern/lmromanunsl10-regular.otf'
p2170
aS'/Library/Fonts/Latin Modern/lmsans8-oblique.otf'
p2171
aS'/Library/Fonts/Microsoft/Meiryo Bold.ttf'
p2172
aS'/Library/Fonts/Latin Modern/lmroman5-bold.otf'
p2173
aS'/Library/Fonts/CooperBlackStd.otf'
p2174
aS'/usr/X11R6/lib/X11/fonts/OTF/SyrCOMMidyat.otf'
p2175
aS'/Library/Fonts/KozGoPro-ExtraLight.otf'
p2176
aS'/usr/X11R6/lib/X11/fonts/OTF/SyrCOMUrhoyBold.otf'
p2177
aS'/Library/Fonts/Microsoft/Tw Cen MT Italic.ttf'
p2178
aS'/Library/Fonts/Microsoft/Bookshelf Symbol 7.ttf'
p2179
aS'/Library/Fonts/ChaparralPro-BoldIt.otf'
p2180
aS'/Library/Fonts/Microsoft/Consolas Bold.ttf'
p2181
aS'/Library/Fonts/TeX Gyre/texgyrebonum-bolditalic.otf'
p2182
aS'/Library/Fonts/TeX Gyre/texgyrepagella-bolditalic.otf'
p2183
aS'/Library/Fonts/Microsoft/Perpetua Italic.ttf'
p2184
aS'/Library/Fonts/Latin Modern/lmroman12-italic.otf'
p2185
aS'/Library/Fonts/AdobeSongStd-Light.otf'
p2186
aS'/Library/Fonts/Hiragino Sans GB W3.otf'
p2187
aS'/Users/ehowell/.fonts/LiberationSans-Regular.ttf'
p2188
aS'/Library/Fonts/AdobeHebrew-BoldItalic.otf'
p2189
aS'/usr/X11R6/lib/X11/fonts/OTF/SyrCOMBatnan.otf'
p2190
aS'/Library/Fonts/Verdana.ttf'
p2191
aS'/Library/Fonts/MyriadWebPro.ttf'
p2192
aS'/Library/Fonts/Latin Modern/lmsans10-boldoblique.otf'
p2193
aS'/Library/Fonts/Arial Italic.ttf'
p2194
aS'/Library/Fonts/PrestigeEliteStd-Bd.otf'
p2195
aS'/Library/Fonts/Verdana Italic.ttf'
p2196
aS'/Library/Fonts/BrushScriptStd.otf'
p2197
aS'/Library/Fonts/Latin Modern/lmmono8-regular.otf'
p2198
aS'/Users/ehowell/.fonts/LiberationMono-BoldItalic.ttf'
p2199
aS'/Library/Fonts/Raanana.ttf'
p2200
aS'/System/Library/Fonts/ThonburiBold.ttf'
p2201
aS'/usr/X11R6/lib/X11/fonts/TTF/luxirbi.ttf'
p2202
aS'/usr/X11R6/lib/X11/fonts/OTF/SyrCOMCtesiphon.otf'
p2203
aS'/Library/Fonts/ACaslonPro-Bold.otf'
p2204
aS'/Library/Fonts/MyriadPro-BoldCond.otf'
p2205
aS'/Library/Fonts/\xe5\x84\xb7\xe5\xae\x8b Pro.ttf'
p2206
aS'/Library/Fonts/Georgia Bold.ttf'
p2207
aS'/Library/Fonts/Chalkduster.ttf'
p2208
aS'/Library/Fonts/MinionPro-BoldIt.otf'
p2209
aS'/Library/Fonts/ACaslonPro-Regular.otf'
p2210
aS'/Library/Fonts/MesquiteStd.otf'
p2211
aS'/Library/Fonts/BigCaslon.ttf'
p2212
aS'/Library/Fonts/Latin Modern/lmroman17-regular.otf'
p2213
aS'/Library/Fonts/Ayuthaya.ttf'
p2214
aS'/usr/X11R6/lib/X11/fonts/OTF/SyrCOMKharput.otf'
p2215
aS'/usr/X11R6/lib/X11/fonts/OTF/SyrCOMJerusalemBold.otf'
p2216
aS'/Library/Fonts/OratorStd.otf'
p2217
aS'/Library/Fonts/BlackoakStd.otf'
p2218
aS'/Library/Fonts/\xe3\x83\x92\xe3\x83\xa9\xe3\x82\xad\xe3\x82\x99\xe3\x83\x8e\xe8\xa7\x92\xe3\x82\xb3\xe3\x82\x99 Pro W6.otf'
p2219
aS'/Library/Fonts/MinionPro-It.otf'
p2220
aS'/Library/Fonts/Latin Modern/lmroman7-italic.otf'
p2221
aS'/Library/Fonts/Microsoft/MS Reference Specialty.ttf'
p2222
aS'/Library/Fonts/MinionPro-Bold.otf'
p2223
aS'/usr/X11R6/lib/X11/fonts/OTF/SyrCOMUrhoy.otf'
p2224
aS'/Library/Fonts/TeX Gyre/texgyrepagella-regular.otf'
p2225
aS'/Library/Fonts/MinionPro-BoldCnIt.otf'
p2226
aS'/Library/Fonts/Andale Mono.ttf'
p2227
aS'/Library/Fonts/Microsoft/Consolas Italic.ttf'
p2228
aS'/Library/Fonts/Latin Modern/lmroman10-bold.otf'
p2229
aS'/Library/Fonts/LetterGothicStd-Bold.otf'
p2230
aS'/Library/Fonts/Silom.ttf'
p2231
aS'/Library/Fonts/TeX Gyre/texgyreschola-italic.otf'
p2232
aS'/Library/Fonts/MshtakanBoldOblique.ttf'
p2233
aS'/usr/X11R6/lib/X11/fonts/TTF/luxisri.ttf'
p2234
aS'/Library/Fonts/Microsoft/Calibri Italic.ttf'
p2235
aS'/Library/Fonts/AdobeFanHeitiStd-Bold.otf'
p2236
aS'/Library/Fonts/KozGoPr6N-Heavy.otf'
p2237
aS'/Library/Fonts/Microsoft/Gulim.ttf'
p2238
aS'/usr/X11R6/lib/X11/fonts/TTF/GohaTibebZemen.ttf'
p2239
aS'/Library/Fonts/KufiStandardGK.ttf'
p2240
aS'/usr/X11R6/lib/X11/fonts/OTF/SyrCOMJerusalemItalic.otf'
p2241
aS'/Library/Fonts/Latin Modern/lmmonocaps10-regular.otf'
p2242
aS'/Library/Fonts/Hei.ttf'
p2243
aS'/Library/Fonts/Latin Modern/lmroman9-italic.otf'
p2244
aS'/Library/Fonts/TeX Gyre/texgyreschola-bold.otf'
p2245
aS'/Library/Fonts/Microsoft/Cambria Bold Italic.ttf'
p2246
aS'/System/Library/Fonts/\xe3\x83\x92\xe3\x83\xa9\xe3\x82\xad\xe3\x82\x99\xe3\x83\x8e\xe6\x98\x8e\xe6\x9c\x9d ProN W3.otf'
p2247
aS'/Library/Fonts/ACaslonPro-BoldItalic.otf'
p2248
aS'/Library/Fonts/ACaslonPro-SemiboldItalic.otf'
p2249
aS'/Library/Fonts/TeX Gyre/texgyreheros-bolditalic.otf'
p2250
aS'/Library/Fonts/NewPeninimMTBoldInclined.ttf'
p2251
aS'/Library/Fonts/Latin Modern/lmroman8-bold.otf'
p2252
aS'/usr/X11R6/lib/X11/fonts/TTF/VeraBI.ttf'
p2253
aS'/Library/Fonts/OCRAStd.otf'
p2254
aS'/Library/Fonts/Verdana Bold.ttf'
p2255
aS'/Library/Fonts/AdobeHebrew-Italic.otf'
p2256
aS'/usr/X11R6/lib/X11/fonts/OTF/SyrCOMTalada.otf'
p2257
aS'/Library/Fonts/Latin Modern/lmroman10-italic.otf'
p2258
aS'/Library/Fonts/NewPeninimMT.ttf'
p2259
aS'/Library/Fonts/TeX Gyre/texgyreheros-regular.otf'
p2260
aS'/usr/X11R6/lib/X11/fonts/OTF/SyrCOMNisibin.otf'
p2261
aS'/Library/Fonts/Arial.ttf'
p2262
aS'/Library/Fonts/TeX Gyre/texgyrechorus-mediumitalic.otf'
p2263
aS'/Library/Fonts/Arial Narrow.ttf'
p2264
aS'/Library/Fonts/MshtakanOblique.ttf'
p2265
aS'/Library/Fonts/EuphemiaCASItalic.ttf'
p2266
aS'/Library/Fonts/Corsiva.ttf'
p2267
aS'/Users/ehowell/.fonts/LiberationSerif-Regular.ttf'
p2268
aS'/usr/X11R6/lib/X11/fonts/TTF/VeraMoIt.ttf'
p2269
aS'/Library/Fonts/Arial Narrow Bold.ttf'
p2270
aS'/Library/Fonts/Times New Roman Italic.ttf'
p2271
aS'/Library/Fonts/MyriadWebPro-Italic.ttf'
p2272
aS'/Library/Fonts/Georgia.ttf'
p2273
aS'/Library/Fonts/NuevaStd-BoldCondItalic.otf'
p2274
aS'/Library/Fonts/CharlemagneStd-Bold.otf'
p2275
aS'/Library/Fonts/Trebuchet MS Bold.ttf'
p2276
aS'/Library/Fonts/Microsoft/Constantia Bold.ttf'
p2277
aS'/Library/Fonts/MinionPro-Regular.otf'
p2278
aS'/Library/Fonts/Latin Modern/lmroman6-bold.otf'
p2279
aS'/Library/Fonts/Times New Roman Bold Italic.ttf'
p2280
aS'/Library/Fonts/Arial Narrow Italic.ttf'
p2281
aS'/Library/Fonts/Latin Modern/lmsansquot8-bold.otf'
p2282
aS'/Library/Fonts/Microsoft/Tw Cen MT Bold.ttf'
p2283
aS'/Library/Fonts/PlantagenetCherokee.ttf'
p2284
aS'/Library/Fonts/BiauKai.ttf'
p2285
aS'/Library/Fonts/Microsoft/Brush Script.ttf'
p2286
aS'/Library/Fonts/Microsoft/Tw Cen MT Bold Italic.ttf'
p2287
aS'/Library/Fonts/Microsoft/Candara Bold Italic.ttf'
p2288
aS'/System/Library/Fonts/\xe3\x83\x92\xe3\x83\xa9\xe3\x82\xad\xe3\x82\x99\xe3\x83\x8e\xe8\xa7\x92\xe3\x82\xb3\xe3\x82\x99 ProN W6.otf'
p2289
aS'/Library/Fonts/Latin Modern/lmmono10-regular.otf'
p2290
aS'/System/Library/Fonts/\xe5\x8d\x8e\xe6\x96\x87\xe9\xbb\x91\xe4\xbd\x93.ttf'
p2291
aS'/Library/Fonts/BirchStd.otf'
p2292
aS'/usr/X11R6/lib/X11/fonts/OTF/SyrCOMJerusalem.otf'
p2293
aS'/Library/Fonts/Latin Modern/lmsansdemicond10-regular.otf'
p2294
aS'/Library/Fonts/Skia.ttf'
p2295
aS'/Library/Fonts/KozGoPr6N-Bold.otf'
p2296
aS'/Library/Fonts/AdobeArabic-Regular.otf'
p2297
aS'/usr/X11R6/lib/X11/fonts/TTF/luxisbi.ttf'
p2298
aS'/Library/Fonts/\xe5\x8d\x8e\xe6\x96\x87\xe6\xa5\xb7\xe4\xbd\x93.ttf'
p2299
aS'/Library/Fonts/\xe5\x8d\x8e\xe6\x96\x87\xe4\xbb\xbf\xe5\xae\x8b.ttf'
p2300
aS'/Library/Fonts/Microsoft/Lucida Console.ttf'
p2301
aS'/Library/Fonts/LithosPro-Regular.otf'
p2302
aS'/Library/Fonts/TrajanPro-Regular.otf'
p2303
aS'/Library/Fonts/KozMinPro-Bold.otf'
p2304
aS'/Library/Fonts/Microsoft/Perpetua.ttf'
p2305
aS'/Library/Fonts/NuevaStd-BoldCond.otf'
p2306
aS'/Library/Fonts/Microsoft/Cambria Bold.ttf'
p2307
aS'/Library/Fonts/TeX Gyre/texgyrepagella-italic.otf'
p2308
aS'/Library/Fonts/Latin Modern/lmsans10-regular.otf'
p2309
aS'/Library/Fonts/Courier New Bold Italic.ttf'
p2310
aS'/Library/Fonts/Arial Rounded Bold.ttf'
p2311
aS'/Library/Fonts/Latin Modern/lmromandemi10-regular.otf'
p2312
aS'/Library/Fonts/TrajanPro-Bold.otf'
p2313
aS'/Library/Fonts/AdobeArabic-BoldItalic.otf'
p2314
aS'/Library/Fonts/KozGoPr6N-Light.otf'
p2315
aS'/Library/Fonts/Latin Modern/lmroman9-bold.otf'
p2316
aS'/Library/Fonts/Microsoft/Franklin Gothic Medium Italic.ttf'
p2317
aS'/Users/ehowell/.fonts/LiberationMono-Regular.ttf'
p2318
aS'/Library/Fonts/Latin Modern/lmmono12-regular.otf'
p2319
aS'/usr/X11R6/lib/X11/fonts/TTF/VeraIt.ttf'
p2320
aS'/Library/Fonts/Microsoft/Constantia Italic.ttf'
p2321
aS'/Library/Fonts/InaiMathi.ttf'
p2322
aS'/Library/Fonts/Latin Modern/lmromancaps10-regular.otf'
p2323
aS'/Library/Fonts/TeX Gyre/texgyrebonum-italic.otf'
p2324
aS'/Library/Fonts/Microsoft/Cambria.ttf'
p2325
aS'/Library/Fonts/Latin Modern/lmroman10-bolditalic.otf'
p2326
aS'/Library/Fonts/Microsoft/Batang.ttf'
p2327
aS'/Library/Fonts/KozGoPro-Light.otf'
p2328
aS'/usr/X11R6/lib/X11/fonts/TTF/luxirr.ttf'
p2329
aS'/Library/Fonts/MinionPro-Semibold.otf'
p2330
aS'/Library/Fonts/KozMinPro-Heavy.otf'
p2331
aS'/Library/Fonts/TeX Gyre/texgyreheroscn-italic.otf'
p2332
aS'/Library/Fonts/LetterGothicStd-Slanted.otf'
p2333
aS'/Library/Fonts/DecoTypeNaskh.ttf'
p2334
aS'/Library/Fonts/TeX Gyre/texgyretermes-bold.otf'
p2335
aS'/Library/Fonts/Latin Modern/lmromanslant10-regular.otf'
p2336
aS'/Library/Fonts/MyriadPro-BoldIt.otf'
p2337
aS'/Library/Fonts/HeadlineA.ttf'
p2338
aS'/Library/Fonts/ArialHBBold.ttf'
p2339
aS'/System/Library/Fonts/Keyboard.ttf'
p2340
aS'/Library/Fonts/\xe3\x83\x92\xe3\x83\xa9\xe3\x82\xad\xe3\x82\x99\xe3\x83\x8e\xe8\xa7\x92\xe3\x82\xb3\xe3\x82\x99 Std W8.otf'
p2341
aS'/Library/Fonts/Microsoft/Lucida Sans Unicode.ttf'
p2342
aS'/Library/Fonts/Hiragino Sans GB W6.otf'
p2343
aS'/System/Library/Fonts/Geeza Pro.ttf'
p2344
aS'/usr/X11R6/lib/X11/fonts/TTF/luximbi.ttf'
p2345
aS'/Library/Fonts/Microsoft/Consolas Bold Italic.ttf'
p2346
aS'/Library/Fonts/Microsoft Sans Serif.ttf'
p2347
aS'/Library/Fonts/TeX Gyre/texgyreschola-regular.otf'
p2348
aS'/Users/ehowell/.fonts/LiberationSerif-BoldItalic.ttf'
p2349
aS'/Library/Fonts/MyriadPro-Bold.otf'
p2350
aS'/usr/X11R6/lib/X11/fonts/TTF/luxisb.ttf'
p2351
aS'/Library/Fonts/\xe3\x83\x92\xe3\x83\xa9\xe3\x82\xad\xe3\x82\x99\xe3\x83\x8e\xe8\xa7\x92\xe3\x82\xb3\xe3\x82\x99 Pro W3.otf'
p2352
aS'/Library/Fonts/Latin Modern/lmmonolt10-regular.otf'
p2353
aS'/Library/Fonts/\xe5\x8d\x8e\xe6\x96\x87\xe5\xae\x8b\xe4\xbd\x93.ttf'
p2354
aS'/Library/Fonts/GiddyupStd.otf'
p2355
aS'/Library/Fonts/Apple Chancery.ttf'
p2356
aS'/usr/X11R6/lib/X11/fonts/OTF/SyrCOMMardin.otf'
p2357
aS'/usr/X11R6/lib/X11/fonts/TTF/luxisr.ttf'
p2358
aS'/Library/Fonts/Latin Modern/lmmonolt10-boldoblique.otf'
p2359
aS'/Library/Fonts/AdobeHebrew-Regular.otf'
p2360
aS'/Library/Fonts/NewPeninimMTBold.ttf'
p2361
aS'/Library/Fonts/Arial Bold.ttf'
p2362
aS'/Library/Fonts/Microsoft/MS PGothic.ttf'
p2363
aS'/Library/Fonts/TeX Gyre/texgyreadventor-italic.otf'
p2364
aS'/Library/Fonts/Latin Modern/lmmonolt10-bold.otf'
p2365
aS'/Library/Fonts/TeX Gyre/texgyretermes-italic.otf'
p2366
aS'/usr/X11R6/lib/X11/fonts/TTF/luximri.ttf'
p2367
aS'/Library/Fonts/Latin Modern/lmromandunh10-oblique.otf'
p2368
aS'/Library/Fonts/Microsoft/Meiryo Bold Italic.ttf'
p2369
aS'/Library/Fonts/KozGoPro-Bold.otf'
p2370
aS'/Library/Fonts/Microsoft/Candara Italic.ttf'
p2371
aS'/Library/Fonts/KozGoPro-Medium.otf'
p2372
aS'/Library/Fonts/Latin Modern/lmsansdemicond10-oblique.otf'
p2373
aS'/Library/Fonts/Arial Unicode.ttf'
p2374
aS'/Library/Fonts/AdobeHeitiStd-Regular.otf'
p2375
aS'/usr/X11R6/lib/X11/fonts/TTF/VeraMoBI.ttf'
p2376
aS'/Library/Fonts/TeX Gyre/texgyrecursor-italic.otf'
p2377
aS'/Library/Fonts/Latin Modern/lmromanslant10-bold.otf'
p2378
aS'/Library/Fonts/DevanagariMTBold.ttf'
p2379
aS'/Library/Fonts/Latin Modern/lmmonoltcond10-oblique.otf'
p2380
aS'/Library/Fonts/KozMinPr6N-Regular.otf'
p2381
aS'/Library/Fonts/TeX Gyre/texgyretermes-bolditalic.otf'
p2382
aS'/Library/Fonts/TeX Gyre/texgyreadventor-bold.otf'
p2383
aS'/Library/Fonts/Microsoft/Candara.ttf'
p2384
aS'/System/Library/Fonts/Thonburi.ttf'
p2385
aS'/Library/Fonts/ChaparralPro-Bold.otf'
p2386
aS'/Library/Fonts/TeX Gyre/texgyreheros-italic.otf'
p2387
aS'/Library/Fonts/Latin Modern/lmromanslant17-regular.otf'
p2388
aS'/Library/Fonts/Courier New.ttf'
p2389
aS'/Library/Fonts/Arial Narrow Bold Italic.ttf'
p2390
aS'/Library/Fonts/Zapfino.ttf'
p2391
aS'/Library/Fonts/Krungthep.ttf'
p2392
aS'/System/Library/Fonts/\xe5\x84\xb7\xe9\xbb\x91 Pro.ttf'
p2393
aS'/Library/Fonts/CooperBlackStd-Italic.otf'
p2394
aS'/Library/Fonts/MinionPro-BoldCn.otf'
p2395
aS'/System/Library/Fonts/\xe3\x83\x92\xe3\x83\xa9\xe3\x82\xad\xe3\x82\x99\xe3\x83\x8e\xe8\xa7\x92\xe3\x82\xb3\xe3\x82\x99 ProN W3.otf'
p2396
aS'/System/Library/Fonts/Apple Braille Outline 8 Dot.ttf'
p2397
aS'/Library/Fonts/KozMinPro-Light.otf'
p2398
aS'/Library/Fonts/Latin Modern/lmroman12-bold.otf'
p2399
aS'/Library/Fonts/TeX Gyre/texgyrecursor-regular.otf'
p2400
aS'/Library/Fonts/Times New Roman Bold.ttf'
p2401
aS'/Users/ehowell/.fonts/LiberationMono-Bold.ttf'
p2402
aS'/Library/Fonts/Microsoft/Corbel Italic.ttf'
p2403
aS'/Library/Fonts/TeX Gyre/texgyretermes-regular.otf'
p2404
aS'/Library/Fonts/AGaramondPro-Italic.otf'
p2405
aS'/Library/Fonts/\xe3\x83\x92\xe3\x83\xa9\xe3\x82\xad\xe3\x82\x99\xe3\x83\x8e\xe8\xa7\x92\xe3\x82\xb3\xe3\x82\x99 StdN W8.otf'
p2406
aS'/Library/Fonts/Microsoft/MS Gothic.ttf'
p2407
aS'/Library/Fonts/Microsoft/MS PMincho.ttf'
p2408
aS'/Library/Fonts/Microsoft/MS Reference Sans Serif.ttf'
p2409
aS'/Library/Fonts/\xe3\x83\x92\xe3\x83\xa9\xe3\x82\xad\xe3\x82\x99\xe3\x83\x8e\xe6\x98\x8e\xe6\x9c\x9d Pro W3.otf'
p2410
aS'/Library/Fonts/Microsoft/Corbel.ttf'
p2411
aS'/Library/Fonts/ACaslonPro-Semibold.otf'
p2412
aS'/Library/Fonts/KozMinPro-Medium.otf'
p2413
aS'/Library/Fonts/TeX Gyre/texgyrecursor-bold.otf'
p2414
aS'/Library/Fonts/Latin Modern/lmroman9-regular.otf'
p2415
aS'/Library/Fonts/Latin Modern/lmroman8-regular.otf'
p2416
aS'/Library/Fonts/Microsoft/SimSun.ttf'
p2417
aS'/System/Library/Fonts/Apple Braille Pinpoint 8 Dot.ttf'
p2418
aS'/Library/Fonts/Georgia Italic.ttf'
p2419
aS'/usr/X11R6/lib/X11/fonts/OTF/SyrCOMNisibinOutline.otf'
p2420
aS'/System/Library/Fonts/Apple Braille Outline 6 Dot.ttf'
p2421
aS'/Library/Fonts/AdobeHebrew-Bold.otf'
p2422
aS'/Library/Fonts/Microsoft/Gill Sans MT Bold Italic.ttf'
p2423
aS'/Library/Fonts/RaananaBold.ttf'
p2424
aS'/Library/Fonts/EuphemiaCASBold.ttf'
p2425
aS'/Library/Fonts/AGaramondPro-Regular.otf'
p2426
aS'/Library/Fonts/ChaparralPro-Regular.otf'
p2427
aS'/System/Library/Fonts/LastResort.ttf'
p2428
aS'/Library/Fonts/Latin Modern/lmroman12-regular.otf'
p2429
aS'/System/Library/Fonts/Geeza Pro Bold.ttf'
p2430
aS'/usr/X11R6/lib/X11/fonts/OTF/SyrCOMAdiabene.otf'
p2431
aS'/usr/X11R6/lib/X11/fonts/OTF/SyrCOMQenNeshrin.otf'
p2432
aS'/Library/Fonts/Microsoft/Constantia Bold Italic.ttf'
p2433
aS'/Library/Fonts/Microsoft/Franklin Gothic Book.ttf'
p2434
aS'/Library/Fonts/KozMinPr6N-ExtraLight.otf'
p2435
aS'/Library/Fonts/Trebuchet MS.ttf'
p2436
aS'/Library/Fonts/Latin Modern/lmromanslant9-regular.otf'
p2437
aS'/Library/Fonts/Courier New Bold.ttf'
p2438
aS'/Library/Fonts/Latin Modern/lmmono10-italic.otf'
p2439
aS'/Library/Fonts/Microsoft/Perpetua Bold.ttf'
p2440
aS'/Library/Fonts/AdobeFangsongStd-Regular.otf'
p2441
aS'/Library/Fonts/Herculanum.ttf'
p2442
aS'/Library/Fonts/TeX Gyre/texgyreadventor-bolditalic.otf'
p2443
aS'/Library/Fonts/Latin Modern/lmsansquot8-regular.otf'
p2444
aS'/Library/Fonts/MinionPro-SemiboldIt.otf'
p2445
aS'/Library/Fonts/Wingdings 2.ttf'
p2446
aS'/Library/Fonts/LithosPro-Black.otf'
p2447
aS'/Library/Fonts/Tahoma.ttf'
p2448
aS'/usr/X11R6/lib/X11/fonts/OTF/SyrCOMJerusalemOutline.otf'
p2449
aS'/Library/Fonts/Microsoft/Gill Sans MT Bold.ttf'
p2450
aS'/Library/Fonts/\xe3\x83\x92\xe3\x83\xa9\xe3\x82\xad\xe3\x82\x99\xe3\x83\x8e\xe4\xb8\xb8\xe3\x82\xb3\xe3\x82\x99 ProN W4.otf'
p2451
aS'/Library/Fonts/TeX Gyre/texgyrecursor-bolditalic.otf'
p2452
aS'/Library/Fonts/OratorStd-Slanted.otf'
p2453
aS'/usr/X11R6/lib/X11/fonts/TTF/luximr.ttf'
p2454
aS'/Library/Fonts/Baghdad.ttf'
p2455
aS'/Library/Fonts/Latin Modern/lmsans9-regular.otf'
p2456
aS'/Library/Fonts/TeX Gyre/texgyreheroscn-regular.otf'
p2457
aS'/usr/X11R6/lib/X11/fonts/OTF/SyrCOMAntioch.otf'
p2458
aS'/usr/X11R6/lib/X11/fonts/TTF/luximb.ttf'
p2459
aS'/Library/Fonts/Latin Modern/lmroman7-bold.otf'
p2460
aS'/Library/Fonts/Microsoft/Meiryo Italic.ttf'
p2461
aS'/Library/Fonts/KozMinPro-ExtraLight.otf'
p2462
aS'/Library/Fonts/Latin Modern/lmromancaps10-oblique.otf'
p2463
aS'/System/Library/Fonts/HelveticaLightItalic.ttf'
p2464
aS'/Library/Fonts/Latin Modern/lmsans8-regular.otf'
p2465
aS'/System/Library/Fonts/Apple Symbols.ttf'
p2466
aS'/Library/Fonts/HoboStd.otf'
p2467
aS'/usr/X11R6/lib/X11/fonts/TTF/VeraSe.ttf'
p2468
aS'/Library/Fonts/Sathu.ttf'
p2469
aS'/Library/Fonts/Apple LiGothic Medium.ttf'
p2470
aS'/Library/Fonts/Microsoft/Calibri.ttf'
p2471
aS'/Library/Fonts/DevanagariMT.ttf'
p2472
aS'/Library/Fonts/OsakaMono.ttf'
p2473
aS'/Library/Fonts/Gungseouche.ttf'
p2474
aS'/Library/Fonts/Latin Modern/lmmono9-regular.otf'
p2475
aS'/Users/ehowell/.fonts/LiberationSans-Bold.ttf'
p2476
aS'/Library/Fonts/Latin Modern/lmmonoltcond10-regular.otf'
p2477
aS'/Library/Fonts/KozGoPro-Regular.otf'
p2478
aS'/Library/Fonts/KozMinPr6N-Medium.otf'
p2479
aS'/Library/Fonts/Comic Sans MS.ttf'
p2480
aS'/Library/Fonts/GujaratiMT.ttf'
p2481
aS'/Library/Fonts/TeX Gyre/texgyreheros-bold.otf'
p2482
asS'_FontManager__default_weight'
p2483
g18
sS'_version'
p2484
I7
sS'ttf_lookup_cache'
p2485
(dp2486
sS'default_size'
p2487
NsS'defaultFont'
p2488
(dp2489
g1976
Nsg1978
g2004
ssS'afmfiles'
p2490
(lp2491
S'/opt/local/Library/Frameworks/Python.framework/Versions/2.7/lib/python2.7/site-packages/matplotlib/mpl-data/fonts/afm/ptmb8a.afm'
p2492
aS'/opt/local/Library/Frameworks/Python.framework/Versions/2.7/lib/python2.7/site-packages/matplotlib/mpl-data/fonts/pdfcorefonts/Symbol.afm'
p2493
aS'/opt/local/Library/Frameworks/Python.framework/Versions/2.7/lib/python2.7/site-packages/matplotlib/mpl-data/fonts/pdfcorefonts/Helvetica.afm'
p2494
aS'/opt/local/Library/Frameworks/Python.framework/Versions/2.7/lib/python2.7/site-packages/matplotlib/mpl-data/fonts/pdfcorefonts/Times-Bold.afm'
p2495
aS'/opt/local/Library/Frameworks/Python.framework/Versions/2.7/lib/python2.7/site-packages/matplotlib/mpl-data/fonts/afm/psyr.afm'
p2496
aS'/opt/local/Library/Frameworks/Python.framework/Versions/2.7/lib/python2.7/site-packages/matplotlib/mpl-data/fonts/afm/cmex10.afm'
p2497
aS'/opt/local/Library/Frameworks/Python.framework/Versions/2.7/lib/python2.7/site-packages/matplotlib/mpl-data/fonts/afm/pagd8a.afm'
p2498
aS'/opt/local/Library/Frameworks/Python.framework/Versions/2.7/lib/python2.7/site-packages/matplotlib/mpl-data/fonts/afm/pplri8a.afm'
p2499
aS'/opt/local/Library/Frameworks/Python.framework/Versions/2.7/lib/python2.7/site-packages/matplotlib/mpl-data/fonts/afm/cmmi10.afm'
p2500
aS'/opt/local/Library/Frameworks/Python.framework/Versions/2.7/lib/python2.7/site-packages/matplotlib/mpl-data/fonts/afm/pplr8a.afm'
p2501
aS'/opt/local/Library/Frameworks/Python.framework/Versions/2.7/lib/python2.7/site-packages/matplotlib/mpl-data/fonts/afm/pncri8a.afm'
p2502
aS'/opt/local/Library/Frameworks/Python.framework/Versions/2.7/lib/python2.7/site-packages/matplotlib/mpl-data/fonts/pdfcorefonts/Courier-Bold.afm'
p2503
aS'/opt/local/Library/Frameworks/Python.framework/Versions/2.7/lib/python2.7/site-packages/matplotlib/mpl-data/fonts/afm/phvro8an.afm'
p2504
aS'/opt/local/Library/Frameworks/Python.framework/Versions/2.7/lib/python2.7/site-packages/matplotlib/mpl-data/fonts/afm/phvb8a.afm'
p2505
aS'/opt/local/Library/Frameworks/Python.framework/Versions/2.7/lib/python2.7/site-packages/matplotlib/mpl-data/fonts/afm/pagdo8a.afm'
p2506
aS'/opt/local/Library/Frameworks/Python.framework/Versions/2.7/lib/python2.7/site-packages/matplotlib/mpl-data/fonts/pdfcorefonts/Courier-Oblique.afm'
p2507
aS'/opt/local/Library/Frameworks/Python.framework/Versions/2.7/lib/python2.7/site-packages/matplotlib/mpl-data/fonts/afm/pbkdi8a.afm'
p2508
aS'/opt/local/Library/Frameworks/Python.framework/Versions/2.7/lib/python2.7/site-packages/matplotlib/mpl-data/fonts/pdfcorefonts/Times-BoldItalic.afm'
p2509
aS'/opt/local/Library/Frameworks/Python.framework/Versions/2.7/lib/python2.7/site-packages/matplotlib/mpl-data/fonts/pdfcorefonts/Courier.afm'
p2510
aS'/opt/local/Library/Frameworks/Python.framework/Versions/2.7/lib/python2.7/site-packages/matplotlib/mpl-data/fonts/afm/phvbo8an.afm'
p2511
aS'/opt/local/Library/Frameworks/Python.framework/Versions/2.7/lib/python2.7/site-packages/matplotlib/mpl-data/fonts/pdfcorefonts/Times-Italic.afm'
p2512
aS'/opt/local/Library/Frameworks/Python.framework/Versions/2.7/lib/python2.7/site-packages/matplotlib/mpl-data/fonts/afm/pbkli8a.afm'
p2513
aS'/opt/local/Library/Frameworks/Python.framework/Versions/2.7/lib/python2.7/site-packages/matplotlib/mpl-data/fonts/afm/pzdr.afm'
p2514
aS'/opt/local/Library/Frameworks/Python.framework/Versions/2.7/lib/python2.7/site-packages/matplotlib/mpl-data/fonts/afm/phvr8an.afm'
p2515
aS'/opt/local/Library/Frameworks/Python.framework/Versions/2.7/lib/python2.7/site-packages/matplotlib/mpl-data/fonts/afm/putb8a.afm'
p2516
aS'/opt/local/Library/Frameworks/Python.framework/Versions/2.7/lib/python2.7/site-packages/matplotlib/mpl-data/fonts/afm/pagk8a.afm'
p2517
aS'/opt/local/Library/Frameworks/Python.framework/Versions/2.7/lib/python2.7/site-packages/matplotlib/mpl-data/fonts/afm/phvro8a.afm'
p2518
aS'/opt/local/Library/Frameworks/Python.framework/Versions/2.7/lib/python2.7/site-packages/matplotlib/mpl-data/fonts/afm/putbi8a.afm'
p2519
aS'/opt/local/Library/Frameworks/Python.framework/Versions/2.7/lib/python2.7/site-packages/matplotlib/mpl-data/fonts/afm/pcrr8a.afm'
p2520
aS'/opt/local/Library/Frameworks/Python.framework/Versions/2.7/lib/python2.7/site-packages/matplotlib/mpl-data/fonts/pdfcorefonts/Helvetica-BoldOblique.afm'
p2521
aS'/opt/local/Library/Frameworks/Python.framework/Versions/2.7/lib/python2.7/site-packages/matplotlib/mpl-data/fonts/pdfcorefonts/Helvetica-Oblique.afm'
p2522
aS'/opt/local/Library/Frameworks/Python.framework/Versions/2.7/lib/python2.7/site-packages/matplotlib/mpl-data/fonts/afm/ptmri8a.afm'
p2523
aS'/opt/local/Library/Frameworks/Python.framework/Versions/2.7/lib/python2.7/site-packages/matplotlib/mpl-data/fonts/afm/phvbo8a.afm'
p2524
aS'/opt/local/Library/Frameworks/Python.framework/Versions/2.7/lib/python2.7/site-packages/matplotlib/mpl-data/fonts/afm/pzcmi8a.afm'
p2525
aS'/opt/local/Library/Frameworks/Python.framework/Versions/2.7/lib/python2.7/site-packages/matplotlib/mpl-data/fonts/afm/putri8a.afm'
p2526
aS'/opt/local/Library/Frameworks/Python.framework/Versions/2.7/lib/python2.7/site-packages/matplotlib/mpl-data/fonts/afm/pbkd8a.afm'
p2527
aS'/opt/local/Library/Frameworks/Python.framework/Versions/2.7/lib/python2.7/site-packages/matplotlib/mpl-data/fonts/pdfcorefonts/ZapfDingbats.afm'
p2528
aS'/opt/local/Library/Frameworks/Python.framework/Versions/2.7/lib/python2.7/site-packages/matplotlib/mpl-data/fonts/afm/phvr8a.afm'
p2529
aS'/opt/local/Library/Frameworks/Python.framework/Versions/2.7/lib/python2.7/site-packages/matplotlib/mpl-data/fonts/afm/pbkl8a.afm'
p2530
aS'/opt/local/Library/Frameworks/Python.framework/Versions/2.7/lib/python2.7/site-packages/matplotlib/mpl-data/fonts/afm/pncbi8a.afm'
p2531
aS'/opt/local/Library/Frameworks/Python.framework/Versions/2.7/lib/python2.7/site-packages/matplotlib/mpl-data/fonts/afm/putr8a.afm'
p2532
aS'/opt/local/Library/Frameworks/Python.framework/Versions/2.7/lib/python2.7/site-packages/matplotlib/mpl-data/fonts/pdfcorefonts/Helvetica-Bold.afm'
p2533
aS'/opt/local/Library/Frameworks/Python.framework/Versions/2.7/lib/python2.7/site-packages/matplotlib/mpl-data/fonts/afm/phvlo8a.afm'
p2534
aS'/opt/local/Library/Frameworks/Python.framework/Versions/2.7/lib/python2.7/site-packages/matplotlib/mpl-data/fonts/afm/pncb8a.afm'
p2535
aS'/opt/local/Library/Frameworks/Python.framework/Versions/2.7/lib/python2.7/site-packages/matplotlib/mpl-data/fonts/afm/phvb8an.afm'
p2536
aS'/opt/local/Library/Frameworks/Python.framework/Versions/2.7/lib/python2.7/site-packages/matplotlib/mpl-data/fonts/afm/pcrro8a.afm'
p2537
aS'/opt/local/Library/Frameworks/Python.framework/Versions/2.7/lib/python2.7/site-packages/matplotlib/mpl-data/fonts/afm/phvl8a.afm'
p2538
aS'/opt/local/Library/Frameworks/Python.framework/Versions/2.7/lib/python2.7/site-packages/matplotlib/mpl-data/fonts/afm/pcrb8a.afm'
p2539
aS'/opt/local/Library/Frameworks/Python.framework/Versions/2.7/lib/python2.7/site-packages/matplotlib/mpl-data/fonts/afm/cmr10.afm'
p2540
aS'/opt/local/Library/Frameworks/Python.framework/Versions/2.7/lib/python2.7/site-packages/matplotlib/mpl-data/fonts/afm/cmsy10.afm'
p2541
aS'/opt/local/Library/Frameworks/Python.framework/Versions/2.7/lib/python2.7/site-packages/matplotlib/mpl-data/fonts/afm/pagko8a.afm'
p2542
aS'/opt/local/Library/Frameworks/Python.framework/Versions/2.7/lib/python2.7/site-packages/matplotlib/mpl-data/fonts/pdfcorefonts/Times-Roman.afm'
p2543
aS'/opt/local/Library/Frameworks/Python.framework/Versions/2.7/lib/python2.7/site-packages/matplotlib/mpl-data/fonts/pdfcorefonts/Courier-BoldOblique.afm'
p2544
aS'/opt/local/Library/Frameworks/Python.framework/Versions/2.7/lib/python2.7/site-packages/matplotlib/mpl-data/fonts/afm/pcrbo8a.afm'
p2545
aS'/opt/local/Library/Frameworks/Python.framework/Versions/2.7/lib/python2.7/site-packages/matplotlib/mpl-data/fonts/afm/cmtt10.afm'
p2546
aS'/opt/local/Library/Frameworks/Python.framework/Versions/2.7/lib/python2.7/site-packages/matplotlib/mpl-data/fonts/afm/ptmr8a.afm'
p2547
aS'/opt/local/Library/Frameworks/Python.framework/Versions/2.7/lib/python2.7/site-packages/matplotlib/mpl-data/fonts/afm/pncr8a.afm'
p2548
aS'/opt/local/Library/Frameworks/Python.framework/Versions/2.7/lib/python2.7/site-packages/matplotlib/mpl-data/fonts/afm/pplb8a.afm'
p2549
aS'/opt/local/Library/Frameworks/Python.framework/Versions/2.7/lib/python2.7/site-packages/matplotlib/mpl-data/fonts/afm/pplbi8a.afm'
p2550
aS'/opt/local/Library/Frameworks/Python.framework/Versions/2.7/lib/python2.7/site-packages/matplotlib/mpl-data/fonts/afm/ptmbi8a.afm'
p2551
asS'afmlist'
p2552
(lp2553
g7
(g8
g9
NtRp2554
(dp2555
g12
g18
sg14
S'Times'
p2556
sg16
I700
sg17
g18
sg19
g18
sg20
g2492
sg22
g23
sbag7
(g8
g9
NtRp2557
(dp2558
g12
g18
sg14
S'Symbol'
p2559
sg16
I500
sg17
g18
sg19
g18
sg20
g2493
sg22
g23
sbag7
(g8
g9
NtRp2560
(dp2561
g12
g18
sg14
S'Helvetica'
p2562
sg16
I500
sg17
g18
sg19
g18
sg20
g2494
sg22
g23
sbag7
(g8
g9
NtRp2563
(dp2564
g12
g18
sg14
S'Times'
p2565
sg16
I700
sg17
g18
sg19
g18
sg20
g2495
sg22
g23
sbag7
(g8
g9
NtRp2566
(dp2567
g12
g18
sg14
S'Symbol'
p2568
sg16
I500
sg17
g18
sg19
g18
sg20
g2496
sg22
g23
sbag7
(g8
g9
NtRp2569
(dp2570
g12
g18
sg14
S'Computer Modern'
p2571
sg16
I500
sg17
g18
sg19
g18
sg20
g2497
sg22
g23
sbag7
(g8
g9
NtRp2572
(dp2573
g12
g18
sg14
S'ITC Avant Garde Gothic'
p2574
sg16
I600
sg17
g18
sg19
g18
sg20
g2498
sg22
g23
sbag7
(g8
g9
NtRp2575
(dp2576
g12
g13
sg14
S'Palatino'
p2577
sg16
I500
sg17
g18
sg19
g18
sg20
g2499
sg22
g23
sbag7
(g8
g9
NtRp2578
(dp2579
g12
g13
sg14
S'Computer Modern'
p2580
sg16
I500
sg17
g18
sg19
g18
sg20
g2500
sg22
g23
sbag7
(g8
g9
NtRp2581
(dp2582
g12
g18
sg14
S'Palatino'
p2583
sg16
I500
sg17
g18
sg19
g18
sg20
g2501
sg22
g23
sbag7
(g8
g9
NtRp2584
(dp2585
g12
g13
sg14
S'New Century Schoolbook'
p2586
sg16
I500
sg17
g18
sg19
g18
sg20
g2502
sg22
g23
sbag7
(g8
g9
NtRp2587
(dp2588
g12
g18
sg14
S'Courier'
p2589
sg16
I700
sg17
g18
sg19
g18
sg20
g2503
sg22
g23
sbag7
(g8
g9
NtRp2590
(dp2591
g12
g13
sg14
S'Helvetica'
p2592
sg16
I500
sg17
g192
sg19
g18
sg20
g2504
sg22
g23
sbag7
(g8
g9
NtRp2593
(dp2594
g12
g18
sg14
S'Helvetica'
p2595
sg16
I700
sg17
g18
sg19
g18
sg20
g2505
sg22
g23
sbag7
(g8
g9
NtRp2596
(dp2597
g12
g13
sg14
S'ITC Avant Garde Gothic'
p2598
sg16
I600
sg17
g18
sg19
g18
sg20
g2506
sg22
g23
sbag7
(g8
g9
NtRp2599
(dp2600
g12
g13
sg14
S'Courier'
p2601
sg16
I500
sg17
g18
sg19
g18
sg20
g2507
sg22
g23
sbag7
(g8
g9
NtRp2602
(dp2603
g12
g13
sg14
S'ITC Bookman'
p2604
sg16
I600
sg17
g18
sg19
g18
sg20
g2508
sg22
g23
sbag7
(g8
g9
NtRp2605
(dp2606
g12
g13
sg14
S'Times'
p2607
sg16
I700
sg17
g18
sg19
g18
sg20
g2509
sg22
g23
sbag7
(g8
g9
NtRp2608
(dp2609
g12
g18
sg14
S'Courier'
p2610
sg16
I500
sg17
g18
sg19
g18
sg20
g2510
sg22
g23
sbag7
(g8
g9
NtRp2611
(dp2612
g12
g13
sg14
S'Helvetica'
p2613
sg16
I700
sg17
g192
sg19
g18
sg20
g2511
sg22
g23
sbag7
(g8
g9
NtRp2614
(dp2615
g12
g13
sg14
S'Times'
p2616
sg16
I500
sg17
g18
sg19
g18
sg20
g2512
sg22
g23
sbag7
(g8
g9
NtRp2617
(dp2618
g12
g13
sg14
S'ITC Bookman'
p2619
sg16
I200
sg17
g18
sg19
g18
sg20
g2513
sg22
g23
sbag7
(g8
g9
NtRp2620
(dp2621
g12
g18
sg14
S'ITC Zapf Dingbats'
p2622
sg16
I500
sg17
g18
sg19
g18
sg20
g2514
sg22
g23
sbag7
(g8
g9
NtRp2623
(dp2624
g12
g18
sg14
S'Helvetica'
p2625
sg16
I500
sg17
g192
sg19
g18
sg20
g2515
sg22
g23
sbag7
(g8
g9
NtRp2626
(dp2627
g12
g18
sg14
S'Utopia'
p2628
sg16
I700
sg17
g18
sg19
g18
sg20
g2516
sg22
g23
sbag7
(g8
g9
NtRp2629
(dp2630
g12
g18
sg14
S'ITC Avant Garde Gothic'
p2631
sg16
I400
sg17
g18
sg19
g18
sg20
g2517
sg22
g23
sbag7
(g8
g9
NtRp2632
(dp2633
g12
g13
sg14
S'Helvetica'
p2634
sg16
I500
sg17
g18
sg19
g18
sg20
g2518
sg22
g23
sbag7
(g8
g9
NtRp2635
(dp2636
g12
g13
sg14
S'Utopia'
p2637
sg16
I700
sg17
g18
sg19
g18
sg20
g2519
sg22
g23
sbag7
(g8
g9
NtRp2638
(dp2639
g12
g18
sg14
S'Courier'
p2640
sg16
I500
sg17
g18
sg19
g18
sg20
g2520
sg22
g23
sbag7
(g8
g9
NtRp2641
(dp2642
g12
g13
sg14
S'Helvetica'
p2643
sg16
I700
sg17
g18
sg19
g18
sg20
g2521
sg22
g23
sbag7
(g8
g9
NtRp2644
(dp2645
g12
g13
sg14
S'Helvetica'
p2646
sg16
I500
sg17
g18
sg19
g18
sg20
g2522
sg22
g23
sbag7
(g8
g9
NtRp2647
(dp2648
g12
g13
sg14
S'Times'
p2649
sg16
I500
sg17
g18
sg19
g18
sg20
g2523
sg22
g23
sbag7
(g8
g9
NtRp2650
(dp2651
g12
g13
sg14
S'Helvetica'
p2652
sg16
I700
sg17
g18
sg19
g18
sg20
g2524
sg22
g23
sbag7
(g8
g9
NtRp2653
(dp2654
g12
g13
sg14
S'ITC Zapf Chancery'
p2655
sg16
I500
sg17
g18
sg19
g18
sg20
g2525
sg22
g23
sbag7
(g8
g9
NtRp2656
(dp2657
g12
g13
sg14
S'Utopia'
p2658
sg16
I400
sg17
g18
sg19
g18
sg20
g2526
sg22
g23
sbag7
(g8
g9
NtRp2659
(dp2660
g12
g18
sg14
S'ITC Bookman'
p2661
sg16
I600
sg17
g18
sg19
g18
sg20
g2527
sg22
g23
sbag7
(g8
g9
NtRp2662
(dp2663
g12
g18
sg14
S'ZapfDingbats'
p2664
sg16
I500
sg17
g18
sg19
g18
sg20
g2528
sg22
g23
sbag7
(g8
g9
NtRp2665
(dp2666
g12
g18
sg14
S'Helvetica'
p2667
sg16
I500
sg17
g18
sg19
g18
sg20
g2529
sg22
g23
sbag7
(g8
g9
NtRp2668
(dp2669
g12
g18
sg14
S'ITC Bookman'
p2670
sg16
I200
sg17
g18
sg19
g18
sg20
g2530
sg22
g23
sbag7
(g8
g9
NtRp2671
(dp2672
g12
g13
sg14
S'New Century Schoolbook'
p2673
sg16
I700
sg17
g18
sg19
g18
sg20
g2531
sg22
g23
sbag7
(g8
g9
NtRp2674
(dp2675
g12
g18
sg14
S'Utopia'
p2676
sg16
I400
sg17
g18
sg19
g18
sg20
g2532
sg22
g23
sbag7
(g8
g9
NtRp2677
(dp2678
g12
g18
sg14
S'Helvetica'
p2679
sg16
I700
sg17
g18
sg19
g18
sg20
g2533
sg22
g23
sbag7
(g8
g9
NtRp2680
(dp2681
g12
g13
sg14
S'Helvetica'
p2682
sg16
I200
sg17
g18
sg19
g18
sg20
g2534
sg22
g23
sbag7
(g8
g9
NtRp2683
(dp2684
g12
g18
sg14
S'New Century Schoolbook'
p2685
sg16
I700
sg17
g18
sg19
g18
sg20
g2535
sg22
g23
sbag7
(g8
g9
NtRp2686
(dp2687
g12
g18
sg14
S'Helvetica'
p2688
sg16
I700
sg17
g192
sg19
g18
sg20
g2536
sg22
g23
sbag7
(g8
g9
NtRp2689
(dp2690
g12
g13
sg14
S'Courier'
p2691
sg16
I500
sg17
g18
sg19
g18
sg20
g2537
sg22
g23
sbag7
(g8
g9
NtRp2692
(dp2693
g12
g18
sg14
S'Helvetica'
p2694
sg16
I200
sg17
g18
sg19
g18
sg20
g2538
sg22
g23
sbag7
(g8
g9
NtRp2695
(dp2696
g12
g18
sg14
S'Courier'
p2697
sg16
I700
sg17
g18
sg19
g18
sg20
g2539
sg22
g23
sbag7
(g8
g9
NtRp2698
(dp2699
g12
g18
sg14
S'Computer Modern'
p2700
sg16
I500
sg17
g18
sg19
g18
sg20
g2540
sg22
g23
sbag7
(g8
g9
NtRp2701
(dp2702
g12
g13
sg14
S'Computer Modern'
p2703
sg16
I500
sg17
g18
sg19
g18
sg20
g2541
sg22
g23
sbag7
(g8
g9
NtRp2704
(dp2705
g12
g13
sg14
S'ITC Avant Garde Gothic'
p2706
sg16
I400
sg17
g18
sg19
g18
sg20
g2542
sg22
g23
sbag7
(g8
g9
NtRp2707
(dp2708
g12
g18
sg14
S'Times'
p2709
sg16
I500
sg17
g18
sg19
g18
sg20
g2543
sg22
g23
sbag7
(g8
g9
NtRp2710
(dp2711
g12
g13
sg14
S'Courier'
p2712
sg16
I700
sg17
g18
sg19
g18
sg20
g2544
sg22
g23
sbag7
(g8
g9
NtRp2713
(dp2714
g12
g13
sg14
S'Courier'
p2715
sg16
I700
sg17
g18
sg19
g18
sg20
g2545
sg22
g23
sbag7
(g8
g9
NtRp2716
(dp2717
g12
g18
sg14
S'Computer Modern'
p2718
sg16
I500
sg17
g18
sg19
g18
sg20
g2546
sg22
g23
sbag7
(g8
g9
NtRp2719
(dp2720
g12
g18
sg14
S'Times'
p2721
sg16
I500
sg17
g18
sg19
g18
sg20
g2547
sg22
g23
sbag7
(g8
g9
NtRp2722
(dp2723
g12
g18
sg14
S'New Century Schoolbook'
p2724
sg16
I500
sg17
g18
sg19
g18
sg20
g2548
sg22
g23
sbag7
(g8
g9
NtRp2725
(dp2726
g12
g18
sg14
S'Palatino'
p2727
sg16
I700
sg17
g18
sg19
g18
sg20
g2549
sg22
g23
sbag7
(g8
g9
NtRp2728
(dp2729
g12
g13
sg14
S'Palatino'
p2730
sg16
I700
sg17
g18
sg19
g18
sg20
g2550
sg22
g23
sbag7
(g8
g9
NtRp2731
(dp2732
g12
g13
sg14
S'Times'
p2733
sg16
I700
sg17
g18
sg19
g18
sg20
g2551
sg22
g23
sbasb.